
AVRASM ver. 2.1.30  E:\projects\3ph_motor_driver\Debug\List\md.asm Sun Jun 11 23:52:15 2017

                 
                 
                 ;CodeVisionAVR C Compiler V3.10 Advanced
                 ;(C) Copyright 1998-2014 Pavel Haiduc, HP InfoTech s.r.l.
                 ;http://www.hpinfotech.com
                 
                 ;Build configuration    : Debug
                 ;Chip type              : ATmega48
                 ;Program type           : Application
                 ;Clock frequency        : 8,000000 MHz
                 ;Memory model           : Small
                 ;Optimize for           : Size
                 ;(s)printf features     : int, width
                 ;(s)scanf features      : int, width
                 ;External RAM size      : 0
                 ;Data Stack size        : 128 byte(s)
                 ;Heap size              : 0 byte(s)
                 ;Promote 'char' to 'int': Yes
                 ;'char' is unsigned     : Yes
                 ;8 bit enums            : Yes
                 ;Global 'const' stored in FLASH: Yes
                 ;Enhanced function parameter passing: Yes
                 ;Enhanced core instructions: On
                 ;Automatic register allocation for global variables: On
                 ;Smart register allocation: On
                 
                 	#define _MODEL_SMALL_
                 
                 	#pragma AVRPART ADMIN PART_NAME ATmega48
                 	#pragma AVRPART MEMORY PROG_FLASH 4096
                 	#pragma AVRPART MEMORY EEPROM 256
                 	#pragma AVRPART MEMORY INT_SRAM SIZE 512
                 	#pragma AVRPART MEMORY INT_SRAM START_ADDR 0x100
                 
                 	.LISTMAC
                 	.EQU EERE=0x0
                 	.EQU EEWE=0x1
                 	.EQU EEMWE=0x2
                 	.EQU UDRE=0x5
                 	.EQU RXC=0x7
                 	.EQU EECR=0x1F
                 	.EQU EEDR=0x20
                 	.EQU EEARL=0x21
                 	.EQU EEARH=0x22
                 	.EQU SPSR=0x2D
                 	.EQU SPDR=0x2E
                 	.EQU SMCR=0x33
                 	.EQU MCUSR=0x34
                 	.EQU MCUCR=0x35
                 	.EQU WDTCSR=0x60
                 	.EQU UCSR0A=0xC0
                 	.EQU UDR0=0xC6
                 	.EQU SPL=0x3D
                 	.EQU SPH=0x3E
                 	.EQU SREG=0x3F
                 	.EQU GPIOR0=0x1E
                 
                 	.DEF R0X0=R0
                 	.DEF R0X1=R1
                 	.DEF R0X2=R2
                 	.DEF R0X3=R3
                 	.DEF R0X4=R4
                 	.DEF R0X5=R5
                 	.DEF R0X6=R6
                 	.DEF R0X7=R7
                 	.DEF R0X8=R8
                 	.DEF R0X9=R9
                 	.DEF R0XA=R10
                 	.DEF R0XB=R11
                 	.DEF R0XC=R12
                 	.DEF R0XD=R13
                 	.DEF R0XE=R14
                 	.DEF R0XF=R15
                 	.DEF R0X10=R16
                 	.DEF R0X11=R17
                 	.DEF R0X12=R18
                 	.DEF R0X13=R19
                 	.DEF R0X14=R20
                 	.DEF R0X15=R21
                 	.DEF R0X16=R22
                 	.DEF R0X17=R23
                 	.DEF R0X18=R24
                 	.DEF R0X19=R25
                 	.DEF R0X1A=R26
                 	.DEF R0X1B=R27
                 	.DEF R0X1C=R28
                 	.DEF R0X1D=R29
                 	.DEF R0X1E=R30
                 	.DEF R0X1F=R31
                 
                 	.EQU __SRAM_START=0x0100
                 	.EQU __SRAM_END=0x02FF
                 	.EQU __DSTACK_SIZE=0x0080
                 	.EQU __HEAP_SIZE=0x0000
                 	.EQU __CLEAR_SRAM_SIZE=__SRAM_END-__SRAM_START+1
                 
                 	.MACRO __CPD1N
                 	CPI  R30,LOW(@0)
                 	LDI  R26,HIGH(@0)
                 	CPC  R31,R26
                 	LDI  R26,BYTE3(@0)
                 	CPC  R22,R26
                 	LDI  R26,BYTE4(@0)
                 	CPC  R23,R26
                 	.ENDM
                 
                 	.MACRO __CPD2N
                 	CPI  R26,LOW(@0)
                 	LDI  R30,HIGH(@0)
                 	CPC  R27,R30
                 	LDI  R30,BYTE3(@0)
                 	CPC  R24,R30
                 	LDI  R30,BYTE4(@0)
                 	CPC  R25,R30
                 	.ENDM
                 
                 	.MACRO __CPWRR
                 	CP   R@0,R@2
                 	CPC  R@1,R@3
                 	.ENDM
                 
                 	.MACRO __CPWRN
                 	CPI  R@0,LOW(@2)
                 	LDI  R30,HIGH(@2)
                 	CPC  R@1,R30
                 	.ENDM
                 
                 	.MACRO __ADDB1MN
                 	SUBI R30,LOW(-@0-(@1))
                 	.ENDM
                 
                 	.MACRO __ADDB2MN
                 	SUBI R26,LOW(-@0-(@1))
                 	.ENDM
                 
                 	.MACRO __ADDW1MN
                 	SUBI R30,LOW(-@0-(@1))
                 	SBCI R31,HIGH(-@0-(@1))
                 	.ENDM
                 
                 	.MACRO __ADDW2MN
                 	SUBI R26,LOW(-@0-(@1))
                 	SBCI R27,HIGH(-@0-(@1))
                 	.ENDM
                 
                 	.MACRO __ADDW1FN
                 	SUBI R30,LOW(-2*@0-(@1))
                 	SBCI R31,HIGH(-2*@0-(@1))
                 	.ENDM
                 
                 	.MACRO __ADDD1FN
                 	SUBI R30,LOW(-2*@0-(@1))
                 	SBCI R31,HIGH(-2*@0-(@1))
                 	SBCI R22,BYTE3(-2*@0-(@1))
                 	.ENDM
                 
                 	.MACRO __ADDD1N
                 	SUBI R30,LOW(-@0)
                 	SBCI R31,HIGH(-@0)
                 	SBCI R22,BYTE3(-@0)
                 	SBCI R23,BYTE4(-@0)
                 	.ENDM
                 
                 	.MACRO __ADDD2N
                 	SUBI R26,LOW(-@0)
                 	SBCI R27,HIGH(-@0)
                 	SBCI R24,BYTE3(-@0)
                 	SBCI R25,BYTE4(-@0)
                 	.ENDM
                 
                 	.MACRO __SUBD1N
                 	SUBI R30,LOW(@0)
                 	SBCI R31,HIGH(@0)
                 	SBCI R22,BYTE3(@0)
                 	SBCI R23,BYTE4(@0)
                 	.ENDM
                 
                 	.MACRO __SUBD2N
                 	SUBI R26,LOW(@0)
                 	SBCI R27,HIGH(@0)
                 	SBCI R24,BYTE3(@0)
                 	SBCI R25,BYTE4(@0)
                 	.ENDM
                 
                 	.MACRO __ANDBMNN
                 	LDS  R30,@0+(@1)
                 	ANDI R30,LOW(@2)
                 	STS  @0+(@1),R30
                 	.ENDM
                 
                 	.MACRO __ANDWMNN
                 	LDS  R30,@0+(@1)
                 	ANDI R30,LOW(@2)
                 	STS  @0+(@1),R30
                 	LDS  R30,@0+(@1)+1
                 	ANDI R30,HIGH(@2)
                 	STS  @0+(@1)+1,R30
                 	.ENDM
                 
                 	.MACRO __ANDD1N
                 	ANDI R30,LOW(@0)
                 	ANDI R31,HIGH(@0)
                 	ANDI R22,BYTE3(@0)
                 	ANDI R23,BYTE4(@0)
                 	.ENDM
                 
                 	.MACRO __ANDD2N
                 	ANDI R26,LOW(@0)
                 	ANDI R27,HIGH(@0)
                 	ANDI R24,BYTE3(@0)
                 	ANDI R25,BYTE4(@0)
                 	.ENDM
                 
                 	.MACRO __ORBMNN
                 	LDS  R30,@0+(@1)
                 	ORI  R30,LOW(@2)
                 	STS  @0+(@1),R30
                 	.ENDM
                 
                 	.MACRO __ORWMNN
                 	LDS  R30,@0+(@1)
                 	ORI  R30,LOW(@2)
                 	STS  @0+(@1),R30
                 	LDS  R30,@0+(@1)+1
                 	ORI  R30,HIGH(@2)
                 	STS  @0+(@1)+1,R30
                 	.ENDM
                 
                 	.MACRO __ORD1N
                 	ORI  R30,LOW(@0)
                 	ORI  R31,HIGH(@0)
                 	ORI  R22,BYTE3(@0)
                 	ORI  R23,BYTE4(@0)
                 	.ENDM
                 
                 	.MACRO __ORD2N
                 	ORI  R26,LOW(@0)
                 	ORI  R27,HIGH(@0)
                 	ORI  R24,BYTE3(@0)
                 	ORI  R25,BYTE4(@0)
                 	.ENDM
                 
                 	.MACRO __DELAY_USB
                 	LDI  R24,LOW(@0)
                 __DELAY_USB_LOOP:
                 	DEC  R24
                 	BRNE __DELAY_USB_LOOP
                 	.ENDM
                 
                 	.MACRO __DELAY_USW
                 	LDI  R24,LOW(@0)
                 	LDI  R25,HIGH(@0)
                 __DELAY_USW_LOOP:
                 	SBIW R24,1
                 	BRNE __DELAY_USW_LOOP
                 	.ENDM
                 
                 	.MACRO __GETD1S
                 	LDD  R30,Y+@0
                 	LDD  R31,Y+@0+1
                 	LDD  R22,Y+@0+2
                 	LDD  R23,Y+@0+3
                 	.ENDM
                 
                 	.MACRO __GETD2S
                 	LDD  R26,Y+@0
                 	LDD  R27,Y+@0+1
                 	LDD  R24,Y+@0+2
                 	LDD  R25,Y+@0+3
                 	.ENDM
                 
                 	.MACRO __PUTD1S
                 	STD  Y+@0,R30
                 	STD  Y+@0+1,R31
                 	STD  Y+@0+2,R22
                 	STD  Y+@0+3,R23
                 	.ENDM
                 
                 	.MACRO __PUTD2S
                 	STD  Y+@0,R26
                 	STD  Y+@0+1,R27
                 	STD  Y+@0+2,R24
                 	STD  Y+@0+3,R25
                 	.ENDM
                 
                 	.MACRO __PUTDZ2
                 	STD  Z+@0,R26
                 	STD  Z+@0+1,R27
                 	STD  Z+@0+2,R24
                 	STD  Z+@0+3,R25
                 	.ENDM
                 
                 	.MACRO __CLRD1S
                 	STD  Y+@0,R30
                 	STD  Y+@0+1,R30
                 	STD  Y+@0+2,R30
                 	STD  Y+@0+3,R30
                 	.ENDM
                 
                 	.MACRO __POINTB1MN
                 	LDI  R30,LOW(@0+(@1))
                 	.ENDM
                 
                 	.MACRO __POINTW1MN
                 	LDI  R30,LOW(@0+(@1))
                 	LDI  R31,HIGH(@0+(@1))
                 	.ENDM
                 
                 	.MACRO __POINTD1M
                 	LDI  R30,LOW(@0)
                 	LDI  R31,HIGH(@0)
                 	LDI  R22,BYTE3(@0)
                 	LDI  R23,BYTE4(@0)
                 	.ENDM
                 
                 	.MACRO __POINTW1FN
                 	LDI  R30,LOW(2*@0+(@1))
                 	LDI  R31,HIGH(2*@0+(@1))
                 	.ENDM
                 
                 	.MACRO __POINTD1FN
                 	LDI  R30,LOW(2*@0+(@1))
                 	LDI  R31,HIGH(2*@0+(@1))
                 	LDI  R22,BYTE3(2*@0+(@1))
                 	LDI  R23,BYTE4(2*@0+(@1))
                 	.ENDM
                 
                 	.MACRO __POINTB2MN
                 	LDI  R26,LOW(@0+(@1))
                 	.ENDM
                 
                 	.MACRO __POINTW2MN
                 	LDI  R26,LOW(@0+(@1))
                 	LDI  R27,HIGH(@0+(@1))
                 	.ENDM
                 
                 	.MACRO __POINTW2FN
                 	LDI  R26,LOW(2*@0+(@1))
                 	LDI  R27,HIGH(2*@0+(@1))
                 	.ENDM
                 
                 	.MACRO __POINTD2FN
                 	LDI  R26,LOW(2*@0+(@1))
                 	LDI  R27,HIGH(2*@0+(@1))
                 	LDI  R24,BYTE3(2*@0+(@1))
                 	LDI  R25,BYTE4(2*@0+(@1))
                 	.ENDM
                 
                 	.MACRO __POINTBRM
                 	LDI  R@0,LOW(@1)
                 	.ENDM
                 
                 	.MACRO __POINTWRM
                 	LDI  R@0,LOW(@2)
                 	LDI  R@1,HIGH(@2)
                 	.ENDM
                 
                 	.MACRO __POINTBRMN
                 	LDI  R@0,LOW(@1+(@2))
                 	.ENDM
                 
                 	.MACRO __POINTWRMN
                 	LDI  R@0,LOW(@2+(@3))
                 	LDI  R@1,HIGH(@2+(@3))
                 	.ENDM
                 
                 	.MACRO __POINTWRFN
                 	LDI  R@0,LOW(@2*2+(@3))
                 	LDI  R@1,HIGH(@2*2+(@3))
                 	.ENDM
                 
                 	.MACRO __GETD1N
                 	LDI  R30,LOW(@0)
                 	LDI  R31,HIGH(@0)
                 	LDI  R22,BYTE3(@0)
                 	LDI  R23,BYTE4(@0)
                 	.ENDM
                 
                 	.MACRO __GETD2N
                 	LDI  R26,LOW(@0)
                 	LDI  R27,HIGH(@0)
                 	LDI  R24,BYTE3(@0)
                 	LDI  R25,BYTE4(@0)
                 	.ENDM
                 
                 	.MACRO __GETB1MN
                 	LDS  R30,@0+(@1)
                 	.ENDM
                 
                 	.MACRO __GETB1HMN
                 	LDS  R31,@0+(@1)
                 	.ENDM
                 
                 	.MACRO __GETW1MN
                 	LDS  R30,@0+(@1)
                 	LDS  R31,@0+(@1)+1
                 	.ENDM
                 
                 	.MACRO __GETD1MN
                 	LDS  R30,@0+(@1)
                 	LDS  R31,@0+(@1)+1
                 	LDS  R22,@0+(@1)+2
                 	LDS  R23,@0+(@1)+3
                 	.ENDM
                 
                 	.MACRO __GETBRMN
                 	LDS  R@0,@1+(@2)
                 	.ENDM
                 
                 	.MACRO __GETWRMN
                 	LDS  R@0,@2+(@3)
                 	LDS  R@1,@2+(@3)+1
                 	.ENDM
                 
                 	.MACRO __GETWRZ
                 	LDD  R@0,Z+@2
                 	LDD  R@1,Z+@2+1
                 	.ENDM
                 
                 	.MACRO __GETD2Z
                 	LDD  R26,Z+@0
                 	LDD  R27,Z+@0+1
                 	LDD  R24,Z+@0+2
                 	LDD  R25,Z+@0+3
                 	.ENDM
                 
                 	.MACRO __GETB2MN
                 	LDS  R26,@0+(@1)
                 	.ENDM
                 
                 	.MACRO __GETW2MN
                 	LDS  R26,@0+(@1)
                 	LDS  R27,@0+(@1)+1
                 	.ENDM
                 
                 	.MACRO __GETD2MN
                 	LDS  R26,@0+(@1)
                 	LDS  R27,@0+(@1)+1
                 	LDS  R24,@0+(@1)+2
                 	LDS  R25,@0+(@1)+3
                 	.ENDM
                 
                 	.MACRO __PUTB1MN
                 	STS  @0+(@1),R30
                 	.ENDM
                 
                 	.MACRO __PUTW1MN
                 	STS  @0+(@1),R30
                 	STS  @0+(@1)+1,R31
                 	.ENDM
                 
                 	.MACRO __PUTD1MN
                 	STS  @0+(@1),R30
                 	STS  @0+(@1)+1,R31
                 	STS  @0+(@1)+2,R22
                 	STS  @0+(@1)+3,R23
                 	.ENDM
                 
                 	.MACRO __PUTB1EN
                 	LDI  R26,LOW(@0+(@1))
                 	LDI  R27,HIGH(@0+(@1))
                 	RCALL __EEPROMWRB
                 	.ENDM
                 
                 	.MACRO __PUTW1EN
                 	LDI  R26,LOW(@0+(@1))
                 	LDI  R27,HIGH(@0+(@1))
                 	RCALL __EEPROMWRW
                 	.ENDM
                 
                 	.MACRO __PUTD1EN
                 	LDI  R26,LOW(@0+(@1))
                 	LDI  R27,HIGH(@0+(@1))
                 	RCALL __EEPROMWRD
                 	.ENDM
                 
                 	.MACRO __PUTBR0MN
                 	STS  @0+(@1),R0
                 	.ENDM
                 
                 	.MACRO __PUTBMRN
                 	STS  @0+(@1),R@2
                 	.ENDM
                 
                 	.MACRO __PUTWMRN
                 	STS  @0+(@1),R@2
                 	STS  @0+(@1)+1,R@3
                 	.ENDM
                 
                 	.MACRO __PUTBZR
                 	STD  Z+@1,R@0
                 	.ENDM
                 
                 	.MACRO __PUTWZR
                 	STD  Z+@2,R@0
                 	STD  Z+@2+1,R@1
                 	.ENDM
                 
                 	.MACRO __GETW1R
                 	MOV  R30,R@0
                 	MOV  R31,R@1
                 	.ENDM
                 
                 	.MACRO __GETW2R
                 	MOV  R26,R@0
                 	MOV  R27,R@1
                 	.ENDM
                 
                 	.MACRO __GETWRN
                 	LDI  R@0,LOW(@2)
                 	LDI  R@1,HIGH(@2)
                 	.ENDM
                 
                 	.MACRO __PUTW1R
                 	MOV  R@0,R30
                 	MOV  R@1,R31
                 	.ENDM
                 
                 	.MACRO __PUTW2R
                 	MOV  R@0,R26
                 	MOV  R@1,R27
                 	.ENDM
                 
                 	.MACRO __ADDWRN
                 	SUBI R@0,LOW(-@2)
                 	SBCI R@1,HIGH(-@2)
                 	.ENDM
                 
                 	.MACRO __ADDWRR
                 	ADD  R@0,R@2
                 	ADC  R@1,R@3
                 	.ENDM
                 
                 	.MACRO __SUBWRN
                 	SUBI R@0,LOW(@2)
                 	SBCI R@1,HIGH(@2)
                 	.ENDM
                 
                 	.MACRO __SUBWRR
                 	SUB  R@0,R@2
                 	SBC  R@1,R@3
                 	.ENDM
                 
                 	.MACRO __ANDWRN
                 	ANDI R@0,LOW(@2)
                 	ANDI R@1,HIGH(@2)
                 	.ENDM
                 
                 	.MACRO __ANDWRR
                 	AND  R@0,R@2
                 	AND  R@1,R@3
                 	.ENDM
                 
                 	.MACRO __ORWRN
                 	ORI  R@0,LOW(@2)
                 	ORI  R@1,HIGH(@2)
                 	.ENDM
                 
                 	.MACRO __ORWRR
                 	OR   R@0,R@2
                 	OR   R@1,R@3
                 	.ENDM
                 
                 	.MACRO __EORWRR
                 	EOR  R@0,R@2
                 	EOR  R@1,R@3
                 	.ENDM
                 
                 	.MACRO __GETWRS
                 	LDD  R@0,Y+@2
                 	LDD  R@1,Y+@2+1
                 	.ENDM
                 
                 	.MACRO __PUTBSR
                 	STD  Y+@1,R@0
                 	.ENDM
                 
                 	.MACRO __PUTWSR
                 	STD  Y+@2,R@0
                 	STD  Y+@2+1,R@1
                 	.ENDM
                 
                 	.MACRO __MOVEWRR
                 	MOV  R@0,R@2
                 	MOV  R@1,R@3
                 	.ENDM
                 
                 	.MACRO __INWR
                 	IN   R@0,@2
                 	IN   R@1,@2+1
                 	.ENDM
                 
                 	.MACRO __OUTWR
                 	OUT  @2+1,R@1
                 	OUT  @2,R@0
                 	.ENDM
                 
                 	.MACRO __CALL1MN
                 	LDS  R30,@0+(@1)
                 	LDS  R31,@0+(@1)+1
                 	ICALL
                 	.ENDM
                 
                 	.MACRO __CALL1FN
                 	LDI  R30,LOW(2*@0+(@1))
                 	LDI  R31,HIGH(2*@0+(@1))
                 	RCALL __GETW1PF
                 	ICALL
                 	.ENDM
                 
                 	.MACRO __CALL2EN
                 	PUSH R26
                 	PUSH R27
                 	LDI  R26,LOW(@0+(@1))
                 	LDI  R27,HIGH(@0+(@1))
                 	RCALL __EEPROMRDW
                 	POP  R27
                 	POP  R26
                 	ICALL
                 	.ENDM
                 
                 	.MACRO __CALL2EX
                 	SUBI R26,LOW(-@0)
                 	SBCI R27,HIGH(-@0)
                 	RCALL __EEPROMRDD
                 	ICALL
                 	.ENDM
                 
                 	.MACRO __GETW1STACK
                 	IN   R30,SPL
                 	IN   R31,SPH
                 	ADIW R30,@0+1
                 	LD   R0,Z+
                 	LD   R31,Z
                 	MOV  R30,R0
                 	.ENDM
                 
                 	.MACRO __GETD1STACK
                 	IN   R30,SPL
                 	IN   R31,SPH
                 	ADIW R30,@0+1
                 	LD   R0,Z+
                 	LD   R1,Z+
                 	LD   R22,Z
                 	MOVW R30,R0
                 	.ENDM
                 
                 	.MACRO __NBST
                 	BST  R@0,@1
                 	IN   R30,SREG
                 	LDI  R31,0x40
                 	EOR  R30,R31
                 	OUT  SREG,R30
                 	.ENDM
                 
                 
                 	.MACRO __PUTB1SN
                 	LDD  R26,Y+@0
                 	LDD  R27,Y+@0+1
                 	SUBI R26,LOW(-@1)
                 	SBCI R27,HIGH(-@1)
                 	ST   X,R30
                 	.ENDM
                 
                 	.MACRO __PUTW1SN
                 	LDD  R26,Y+@0
                 	LDD  R27,Y+@0+1
                 	SUBI R26,LOW(-@1)
                 	SBCI R27,HIGH(-@1)
                 	ST   X+,R30
                 	ST   X,R31
                 	.ENDM
                 
                 	.MACRO __PUTD1SN
                 	LDD  R26,Y+@0
                 	LDD  R27,Y+@0+1
                 	SUBI R26,LOW(-@1)
                 	SBCI R27,HIGH(-@1)
                 	RCALL __PUTDP1
                 	.ENDM
                 
                 	.MACRO __PUTB1SNS
                 	LDD  R26,Y+@0
                 	LDD  R27,Y+@0+1
                 	ADIW R26,@1
                 	ST   X,R30
                 	.ENDM
                 
                 	.MACRO __PUTW1SNS
                 	LDD  R26,Y+@0
                 	LDD  R27,Y+@0+1
                 	ADIW R26,@1
                 	ST   X+,R30
                 	ST   X,R31
                 	.ENDM
                 
                 	.MACRO __PUTD1SNS
                 	LDD  R26,Y+@0
                 	LDD  R27,Y+@0+1
                 	ADIW R26,@1
                 	RCALL __PUTDP1
                 	.ENDM
                 
                 	.MACRO __PUTB1PMN
                 	LDS  R26,@0
                 	LDS  R27,@0+1
                 	SUBI R26,LOW(-@1)
                 	SBCI R27,HIGH(-@1)
                 	ST   X,R30
                 	.ENDM
                 
                 	.MACRO __PUTW1PMN
                 	LDS  R26,@0
                 	LDS  R27,@0+1
                 	SUBI R26,LOW(-@1)
                 	SBCI R27,HIGH(-@1)
                 	ST   X+,R30
                 	ST   X,R31
                 	.ENDM
                 
                 	.MACRO __PUTD1PMN
                 	LDS  R26,@0
                 	LDS  R27,@0+1
                 	SUBI R26,LOW(-@1)
                 	SBCI R27,HIGH(-@1)
                 	RCALL __PUTDP1
                 	.ENDM
                 
                 	.MACRO __PUTB1PMNS
                 	LDS  R26,@0
                 	LDS  R27,@0+1
                 	ADIW R26,@1
                 	ST   X,R30
                 	.ENDM
                 
                 	.MACRO __PUTW1PMNS
                 	LDS  R26,@0
                 	LDS  R27,@0+1
                 	ADIW R26,@1
                 	ST   X+,R30
                 	ST   X,R31
                 	.ENDM
                 
                 	.MACRO __PUTD1PMNS
                 	LDS  R26,@0
                 	LDS  R27,@0+1
                 	ADIW R26,@1
                 	RCALL __PUTDP1
                 	.ENDM
                 
                 	.MACRO __PUTB1RN
                 	MOVW R26,R@0
                 	SUBI R26,LOW(-@1)
                 	SBCI R27,HIGH(-@1)
                 	ST   X,R30
                 	.ENDM
                 
                 	.MACRO __PUTW1RN
                 	MOVW R26,R@0
                 	SUBI R26,LOW(-@1)
                 	SBCI R27,HIGH(-@1)
                 	ST   X+,R30
                 	ST   X,R31
                 	.ENDM
                 
                 	.MACRO __PUTD1RN
                 	MOVW R26,R@0
                 	SUBI R26,LOW(-@1)
                 	SBCI R27,HIGH(-@1)
                 	RCALL __PUTDP1
                 	.ENDM
                 
                 	.MACRO __PUTB1RNS
                 	MOVW R26,R@0
                 	ADIW R26,@1
                 	ST   X,R30
                 	.ENDM
                 
                 	.MACRO __PUTW1RNS
                 	MOVW R26,R@0
                 	ADIW R26,@1
                 	ST   X+,R30
                 	ST   X,R31
                 	.ENDM
                 
                 	.MACRO __PUTD1RNS
                 	MOVW R26,R@0
                 	ADIW R26,@1
                 	RCALL __PUTDP1
                 	.ENDM
                 
                 	.MACRO __PUTB1RON
                 	MOV  R26,R@0
                 	MOV  R27,R@1
                 	SUBI R26,LOW(-@2)
                 	SBCI R27,HIGH(-@2)
                 	ST   X,R30
                 	.ENDM
                 
                 	.MACRO __PUTW1RON
                 	MOV  R26,R@0
                 	MOV  R27,R@1
                 	SUBI R26,LOW(-@2)
                 	SBCI R27,HIGH(-@2)
                 	ST   X+,R30
                 	ST   X,R31
                 	.ENDM
                 
                 	.MACRO __PUTD1RON
                 	MOV  R26,R@0
                 	MOV  R27,R@1
                 	SUBI R26,LOW(-@2)
                 	SBCI R27,HIGH(-@2)
                 	RCALL __PUTDP1
                 	.ENDM
                 
                 	.MACRO __PUTB1RONS
                 	MOV  R26,R@0
                 	MOV  R27,R@1
                 	ADIW R26,@2
                 	ST   X,R30
                 	.ENDM
                 
                 	.MACRO __PUTW1RONS
                 	MOV  R26,R@0
                 	MOV  R27,R@1
                 	ADIW R26,@2
                 	ST   X+,R30
                 	ST   X,R31
                 	.ENDM
                 
                 	.MACRO __PUTD1RONS
                 	MOV  R26,R@0
                 	MOV  R27,R@1
                 	ADIW R26,@2
                 	RCALL __PUTDP1
                 	.ENDM
                 
                 
                 	.MACRO __GETB1SX
                 	MOVW R30,R28
                 	SUBI R30,LOW(-@0)
                 	SBCI R31,HIGH(-@0)
                 	LD   R30,Z
                 	.ENDM
                 
                 	.MACRO __GETB1HSX
                 	MOVW R30,R28
                 	SUBI R30,LOW(-@0)
                 	SBCI R31,HIGH(-@0)
                 	LD   R31,Z
                 	.ENDM
                 
                 	.MACRO __GETW1SX
                 	MOVW R30,R28
                 	SUBI R30,LOW(-@0)
                 	SBCI R31,HIGH(-@0)
                 	LD   R0,Z+
                 	LD   R31,Z
                 	MOV  R30,R0
                 	.ENDM
                 
                 	.MACRO __GETD1SX
                 	MOVW R30,R28
                 	SUBI R30,LOW(-@0)
                 	SBCI R31,HIGH(-@0)
                 	LD   R0,Z+
                 	LD   R1,Z+
                 	LD   R22,Z+
                 	LD   R23,Z
                 	MOVW R30,R0
                 	.ENDM
                 
                 	.MACRO __GETB2SX
                 	MOVW R26,R28
                 	SUBI R26,LOW(-@0)
                 	SBCI R27,HIGH(-@0)
                 	LD   R26,X
                 	.ENDM
                 
                 	.MACRO __GETW2SX
                 	MOVW R26,R28
                 	SUBI R26,LOW(-@0)
                 	SBCI R27,HIGH(-@0)
                 	LD   R0,X+
                 	LD   R27,X
                 	MOV  R26,R0
                 	.ENDM
                 
                 	.MACRO __GETD2SX
                 	MOVW R26,R28
                 	SUBI R26,LOW(-@0)
                 	SBCI R27,HIGH(-@0)
                 	LD   R0,X+
                 	LD   R1,X+
                 	LD   R24,X+
                 	LD   R25,X
                 	MOVW R26,R0
                 	.ENDM
                 
                 	.MACRO __GETBRSX
                 	MOVW R30,R28
                 	SUBI R30,LOW(-@1)
                 	SBCI R31,HIGH(-@1)
                 	LD   R@0,Z
                 	.ENDM
                 
                 	.MACRO __GETWRSX
                 	MOVW R30,R28
                 	SUBI R30,LOW(-@2)
                 	SBCI R31,HIGH(-@2)
                 	LD   R@0,Z+
                 	LD   R@1,Z
                 	.ENDM
                 
                 	.MACRO __GETBRSX2
                 	MOVW R26,R28
                 	SUBI R26,LOW(-@1)
                 	SBCI R27,HIGH(-@1)
                 	LD   R@0,X
                 	.ENDM
                 
                 	.MACRO __GETWRSX2
                 	MOVW R26,R28
                 	SUBI R26,LOW(-@2)
                 	SBCI R27,HIGH(-@2)
                 	LD   R@0,X+
                 	LD   R@1,X
                 	.ENDM
                 
                 	.MACRO __LSLW8SX
                 	MOVW R30,R28
                 	SUBI R30,LOW(-@0)
                 	SBCI R31,HIGH(-@0)
                 	LD   R31,Z
                 	CLR  R30
                 	.ENDM
                 
                 	.MACRO __PUTB1SX
                 	MOVW R26,R28
                 	SUBI R26,LOW(-@0)
                 	SBCI R27,HIGH(-@0)
                 	ST   X,R30
                 	.ENDM
                 
                 	.MACRO __PUTW1SX
                 	MOVW R26,R28
                 	SUBI R26,LOW(-@0)
                 	SBCI R27,HIGH(-@0)
                 	ST   X+,R30
                 	ST   X,R31
                 	.ENDM
                 
                 	.MACRO __PUTD1SX
                 	MOVW R26,R28
                 	SUBI R26,LOW(-@0)
                 	SBCI R27,HIGH(-@0)
                 	ST   X+,R30
                 	ST   X+,R31
                 	ST   X+,R22
                 	ST   X,R23
                 	.ENDM
                 
                 	.MACRO __CLRW1SX
                 	MOVW R26,R28
                 	SUBI R26,LOW(-@0)
                 	SBCI R27,HIGH(-@0)
                 	ST   X+,R30
                 	ST   X,R30
                 	.ENDM
                 
                 	.MACRO __CLRD1SX
                 	MOVW R26,R28
                 	SUBI R26,LOW(-@0)
                 	SBCI R27,HIGH(-@0)
                 	ST   X+,R30
                 	ST   X+,R30
                 	ST   X+,R30
                 	ST   X,R30
                 	.ENDM
                 
                 	.MACRO __PUTB2SX
                 	MOVW R30,R28
                 	SUBI R30,LOW(-@0)
                 	SBCI R31,HIGH(-@0)
                 	ST   Z,R26
                 	.ENDM
                 
                 	.MACRO __PUTW2SX
                 	MOVW R30,R28
                 	SUBI R30,LOW(-@0)
                 	SBCI R31,HIGH(-@0)
                 	ST   Z+,R26
                 	ST   Z,R27
                 	.ENDM
                 
                 	.MACRO __PUTD2SX
                 	MOVW R30,R28
                 	SUBI R30,LOW(-@0)
                 	SBCI R31,HIGH(-@0)
                 	ST   Z+,R26
                 	ST   Z+,R27
                 	ST   Z+,R24
                 	ST   Z,R25
                 	.ENDM
                 
                 	.MACRO __PUTBSRX
                 	MOVW R30,R28
                 	SUBI R30,LOW(-@1)
                 	SBCI R31,HIGH(-@1)
                 	ST   Z,R@0
                 	.ENDM
                 
                 	.MACRO __PUTWSRX
                 	MOVW R30,R28
                 	SUBI R30,LOW(-@2)
                 	SBCI R31,HIGH(-@2)
                 	ST   Z+,R@0
                 	ST   Z,R@1
                 	.ENDM
                 
                 	.MACRO __PUTB1SNX
                 	MOVW R26,R28
                 	SUBI R26,LOW(-@0)
                 	SBCI R27,HIGH(-@0)
                 	LD   R0,X+
                 	LD   R27,X
                 	MOV  R26,R0
                 	SUBI R26,LOW(-@1)
                 	SBCI R27,HIGH(-@1)
                 	ST   X,R30
                 	.ENDM
                 
                 	.MACRO __PUTW1SNX
                 	MOVW R26,R28
                 	SUBI R26,LOW(-@0)
                 	SBCI R27,HIGH(-@0)
                 	LD   R0,X+
                 	LD   R27,X
                 	MOV  R26,R0
                 	SUBI R26,LOW(-@1)
                 	SBCI R27,HIGH(-@1)
                 	ST   X+,R30
                 	ST   X,R31
                 	.ENDM
                 
                 	.MACRO __PUTD1SNX
                 	MOVW R26,R28
                 	SUBI R26,LOW(-@0)
                 	SBCI R27,HIGH(-@0)
                 	LD   R0,X+
                 	LD   R27,X
                 	MOV  R26,R0
                 	SUBI R26,LOW(-@1)
                 	SBCI R27,HIGH(-@1)
                 	ST   X+,R30
                 	ST   X+,R31
                 	ST   X+,R22
                 	ST   X,R23
                 	.ENDM
                 
                 	.MACRO __MULBRR
                 	MULS R@0,R@1
                 	MOVW R30,R0
                 	.ENDM
                 
                 	.MACRO __MULBRRU
                 	MUL  R@0,R@1
                 	MOVW R30,R0
                 	.ENDM
                 
                 	.MACRO __MULBRR0
                 	MULS R@0,R@1
                 	.ENDM
                 
                 	.MACRO __MULBRRU0
                 	MUL  R@0,R@1
                 	.ENDM
                 
                 	.MACRO __MULBNWRU
                 	LDI  R26,@2
                 	MUL  R26,R@0
                 	MOVW R30,R0
                 	MUL  R26,R@1
                 	ADD  R31,R0
                 	.ENDM
                 
                 ;GPIOR0 INITIALIZATION VALUE
                 	.EQU __GPIOR0_INIT=0x00
                 
                 	.CSEG
                 	.ORG 0x00
                 
                 ;START OF CODE MARKER
                 __START_OF_CODE:
                 
                 ;INTERRUPT VECTORS
000000 c13e      	RJMP __RESET
000001 cffe      	RJMP 0x00
000002 cffd      	RJMP 0x00
000003 cffc      	RJMP 0x00
000004 cffb      	RJMP 0x00
000005 cffa      	RJMP 0x00
000006 cff9      	RJMP 0x00
000007 cff8      	RJMP 0x00
000008 cff7      	RJMP 0x00
000009 cff6      	RJMP 0x00
00000a cff5      	RJMP 0x00
00000b cff4      	RJMP 0x00
00000c cff3      	RJMP 0x00
00000d cff2      	RJMP 0x00
00000e cff1      	RJMP 0x00
00000f cff0      	RJMP 0x00
000010 c180      	RJMP _timer0_ovf_isr
000011 cfee      	RJMP 0x00
000012 cfed      	RJMP 0x00
000013 cfec      	RJMP 0x00
000014 cfeb      	RJMP 0x00
000015 cfea      	RJMP 0x00
000016 cfe9      	RJMP 0x00
000017 cfe8      	RJMP 0x00
000018 cfe7      	RJMP 0x00
000019 cfe6      	RJMP 0x00
                 
                 _sineTable:
00001a 0000
00001b 08dd
00001c e100
00001d 0011      	.DB  0x0,0x0,0xDD,0x8,0x0,0xE1,0x11,0x0
00001e 19e5
00001f e800
000020 0021
000021 2aec      	.DB  0xE5,0x19,0x0,0xE8,0x21,0x0,0xEC,0x2A
000022 ef00
000023 0032
000024 3af1
000025 f400      	.DB  0x0,0xEF,0x32,0x0,0xF1,0x3A,0x0,0xF4
000026 0042
000027 4af6
000028 f800
000029 0052      	.DB  0x42,0x0,0xF6,0x4A,0x0,0xF8,0x52,0x0
00002a 5afa
00002b fc00
00002c 0062
00002d 69fd      	.DB  0xFA,0x5A,0x0,0xFC,0x62,0x0,0xFD,0x69
00002e fe00
00002f 0071
000030 78fe
000031 ff00      	.DB  0x0,0xFE,0x71,0x0,0xFE,0x78,0x0,0xFF
000032 0080
000033 87ff
000034 ff00
000035 008e      	.DB  0x80,0x0,0xFF,0x87,0x0,0xFF,0x8E,0x0
000036 95fe
000037 fe00
000038 009b
000039 a2fd      	.DB  0xFE,0x95,0x0,0xFE,0x9B,0x0,0xFD,0xA2
00003a fc00
00003b 00a8
00003c aefa
00003d f800      	.DB  0x0,0xFC,0xA8,0x0,0xFA,0xAE,0x0,0xF8
00003e 00b4
00003f baf6
000040 f400
000041 00c0      	.DB  0xB4,0x0,0xF6,0xBA,0x0,0xF4,0xC0,0x0
000042 c5f1
000043 ef00
000044 00ca
000045 cfec      	.DB  0xF1,0xC5,0x0,0xEF,0xCA,0x0,0xEC,0xCF
000046 e800
000047 00d4
000048 d9e5
000049 e100      	.DB  0x0,0xE8,0xD4,0x0,0xE5,0xD9,0x0,0xE1
00004a 00dd
00004b e1dd
00004c d900
00004d 00e5      	.DB  0xDD,0x0,0xDD,0xE1,0x0,0xD9,0xE5,0x0
00004e e8d4
00004f cf00
000050 00ec
000051 efca      	.DB  0xD4,0xE8,0x0,0xCF,0xEC,0x0,0xCA,0xEF
000052 c500
000053 00f1
000054 f4c0
000055 ba00      	.DB  0x0,0xC5,0xF1,0x0,0xC0,0xF4,0x0,0xBA
000056 00f6
000057 f8b4
000058 ae00
000059 00fa      	.DB  0xF6,0x0,0xB4,0xF8,0x0,0xAE,0xFA,0x0
00005a fca8
00005b a200
00005c 00fd
00005d fe9b      	.DB  0xA8,0xFC,0x0,0xA2,0xFD,0x0,0x9B,0xFE
00005e 9500
00005f 00fe
000060 ff8e
000061 8700      	.DB  0x0,0x95,0xFE,0x0,0x8E,0xFF,0x0,0x87
000062 00ff
000063 ff7f
000064 7800
000065 00fe      	.DB  0xFF,0x0,0x7F,0xFF,0x0,0x78,0xFE,0x0
000066 fe71
000067 6900
000068 00fd
000069 fc62      	.DB  0x71,0xFE,0x0,0x69,0xFD,0x0,0x62,0xFC
00006a 5a00
00006b 00fa
00006c f852
00006d 4a00      	.DB  0x0,0x5A,0xFA,0x0,0x52,0xF8,0x0,0x4A
00006e 00f6
00006f f442
000070 3a00
000071 00f1      	.DB  0xF6,0x0,0x42,0xF4,0x0,0x3A,0xF1,0x0
000072 ef32
000073 2a00
000074 00ec
000075 e821      	.DB  0x32,0xEF,0x0,0x2A,0xEC,0x0,0x21,0xE8
000076 1900
000077 00e5
000078 e111
000079 0800      	.DB  0x0,0x19,0xE5,0x0,0x11,0xE1,0x0,0x8
00007a 00dd
00007b e100
00007c 0008
00007d 11e5      	.DB  0xDD,0x0,0x0,0xE1,0x8,0x0,0xE5,0x11
00007e e800
00007f 0019
000080 21ec
000081 ef00      	.DB  0x0,0xE8,0x19,0x0,0xEC,0x21,0x0,0xEF
000082 002a
000083 32f1
000084 f400
000085 003a      	.DB  0x2A,0x0,0xF1,0x32,0x0,0xF4,0x3A,0x0
000086 42f6
000087 f800
000088 004a
000089 52fa      	.DB  0xF6,0x42,0x0,0xF8,0x4A,0x0,0xFA,0x52
00008a fc00
00008b 005a
00008c 62fd
00008d fe00      	.DB  0x0,0xFC,0x5A,0x0,0xFD,0x62,0x0,0xFE
00008e 0069
00008f 71fe
000090 ff00
000091 0078      	.DB  0x69,0x0,0xFE,0x71,0x0,0xFF,0x78,0x0
000092 7fff
000093 ff00
000094 0087
000095 8efe      	.DB  0xFF,0x7F,0x0,0xFF,0x87,0x0,0xFE,0x8E
000096 fe00
000097 0095
000098 9bfd
000099 fc00      	.DB  0x0,0xFE,0x95,0x0,0xFD,0x9B,0x0,0xFC
00009a 00a2
00009b a8fa
00009c f800
00009d 00ae      	.DB  0xA2,0x0,0xFA,0xA8,0x0,0xF8,0xAE,0x0
00009e b4f6
00009f f400
0000a0 00ba
0000a1 c0f1      	.DB  0xF6,0xB4,0x0,0xF4,0xBA,0x0,0xF1,0xC0
0000a2 ef00
0000a3 00c5
0000a4 caec
0000a5 e800      	.DB  0x0,0xEF,0xC5,0x0,0xEC,0xCA,0x0,0xE8
0000a6 00cf
0000a7 d4e5
0000a8 e100
0000a9 00d9      	.DB  0xCF,0x0,0xE5,0xD4,0x0,0xE1,0xD9,0x0
0000aa dddd
0000ab d900
0000ac 00e1
0000ad e5d4      	.DB  0xDD,0xDD,0x0,0xD9,0xE1,0x0,0xD4,0xE5
0000ae cf00
0000af 00e8
0000b0 ecca
0000b1 c500      	.DB  0x0,0xCF,0xE8,0x0,0xCA,0xEC,0x0,0xC5
0000b2 00ef
0000b3 f1c0
0000b4 ba00
0000b5 00f4      	.DB  0xEF,0x0,0xC0,0xF1,0x0,0xBA,0xF4,0x0
0000b6 f6b4
0000b7 ae00
0000b8 00f8
0000b9 faa8      	.DB  0xB4,0xF6,0x0,0xAE,0xF8,0x0,0xA8,0xFA
0000ba a200
0000bb 00fc
0000bc fd9b
0000bd 9500      	.DB  0x0,0xA2,0xFC,0x0,0x9B,0xFD,0x0,0x95
0000be 00fe
0000bf fe8e
0000c0 8700
0000c1 00ff      	.DB  0xFE,0x0,0x8E,0xFE,0x0,0x87,0xFF,0x0
0000c2 ff80
0000c3 7800
0000c4 00ff
0000c5 fe71      	.DB  0x80,0xFF,0x0,0x78,0xFF,0x0,0x71,0xFE
0000c6 6900
0000c7 00fe
0000c8 fd62
0000c9 5a00      	.DB  0x0,0x69,0xFE,0x0,0x62,0xFD,0x0,0x5A
0000ca 00fc
0000cb fa52
0000cc 4a00
0000cd 00f8      	.DB  0xFC,0x0,0x52,0xFA,0x0,0x4A,0xF8,0x0
0000ce f642
0000cf 3a00
0000d0 00f4
0000d1 f132      	.DB  0x42,0xF6,0x0,0x3A,0xF4,0x0,0x32,0xF1
0000d2 2a00
0000d3 00ef
0000d4 ec21
0000d5 1900      	.DB  0x0,0x2A,0xEF,0x0,0x21,0xEC,0x0,0x19
0000d6 00e8
0000d7 e511
0000d8 0800
0000d9 00e1      	.DB  0xE8,0x0,0x11,0xE5,0x0,0x8,0xE1,0x0
0000da dd00
0000db 0000
0000dc 08e1
0000dd e500      	.DB  0x0,0xDD,0x0,0x0,0xE1,0x8,0x0,0xE5
0000de 0011
0000df 19e8
0000e0 ec00
0000e1 0021      	.DB  0x11,0x0,0xE8,0x19,0x0,0xEC,0x21,0x0
0000e2 2aef
0000e3 f100
0000e4 0032
0000e5 3af4      	.DB  0xEF,0x2A,0x0,0xF1,0x32,0x0,0xF4,0x3A
0000e6 f600
0000e7 0042
0000e8 4af8
0000e9 fa00      	.DB  0x0,0xF6,0x42,0x0,0xF8,0x4A,0x0,0xFA
0000ea 0052
0000eb 5afc
0000ec fd00
0000ed 0062      	.DB  0x52,0x0,0xFC,0x5A,0x0,0xFD,0x62,0x0
0000ee 69fe
0000ef fe00
0000f0 0071
0000f1 78ff      	.DB  0xFE,0x69,0x0,0xFE,0x71,0x0,0xFF,0x78
0000f2 ff00
0000f3 0080
0000f4 87ff
0000f5 fe00      	.DB  0x0,0xFF,0x80,0x0,0xFF,0x87,0x0,0xFE
0000f6 008e
0000f7 95fe
0000f8 fd00
0000f9 009b      	.DB  0x8E,0x0,0xFE,0x95,0x0,0xFD,0x9B,0x0
0000fa a2fc
0000fb fa00
0000fc 00a8
0000fd aef8      	.DB  0xFC,0xA2,0x0,0xFA,0xA8,0x0,0xF8,0xAE
0000fe f600
0000ff 00b4
000100 baf4
000101 f100      	.DB  0x0,0xF6,0xB4,0x0,0xF4,0xBA,0x0,0xF1
000102 00c0
000103 c5ef
000104 ec00
000105 00ca      	.DB  0xC0,0x0,0xEF,0xC5,0x0,0xEC,0xCA,0x0
000106 cfe8
000107 e500
000108 00d4
000109 d9e1      	.DB  0xE8,0xCF,0x0,0xE5,0xD4,0x0,0xE1,0xD9
00010a dd00
00010b 00dd
00010c e1d9
00010d d400      	.DB  0x0,0xDD,0xDD,0x0,0xD9,0xE1,0x0,0xD4
00010e 00e5
00010f e8cf
000110 ca00
000111 00ec      	.DB  0xE5,0x0,0xCF,0xE8,0x0,0xCA,0xEC,0x0
000112 efc5
000113 c000
000114 00f1
000115 f4ba      	.DB  0xC5,0xEF,0x0,0xC0,0xF1,0x0,0xBA,0xF4
000116 b400
000117 00f6
000118 f8ae
000119 a800      	.DB  0x0,0xB4,0xF6,0x0,0xAE,0xF8,0x0,0xA8
00011a 00fa
00011b fca2
00011c 9b00
00011d 00fd      	.DB  0xFA,0x0,0xA2,0xFC,0x0,0x9B,0xFD,0x0
00011e fe95
00011f 8e00
000120 00fe
000121 ff87      	.DB  0x95,0xFE,0x0,0x8E,0xFE,0x0,0x87,0xFF
000122 8000
000123 00ff
000124 ff78
000125 7100      	.DB  0x0,0x80,0xFF,0x0,0x78,0xFF,0x0,0x71
000126 00fe
000127 fe69
000128 6200
000129 00fd      	.DB  0xFE,0x0,0x69,0xFE,0x0,0x62,0xFD,0x0
00012a fc5a
00012b 5200
00012c 00fa
00012d f84a      	.DB  0x5A,0xFC,0x0,0x52,0xFA,0x0,0x4A,0xF8
00012e 4200
00012f 00f6
000130 f43a
000131 3200      	.DB  0x0,0x42,0xF6,0x0,0x3A,0xF4,0x0,0x32
000132 00f1
000133 ef2a
000134 2100
000135 00ec      	.DB  0xF1,0x0,0x2A,0xEF,0x0,0x21,0xEC,0x0
000136 e819
000137 1100
000138 00e5
000139 e108      	.DB  0x19,0xE8,0x0,0x11,0xE5,0x0,0x8,0xE1
                 
                 _0x3:
E:\projects\3ph_motor_driver\Debug\List\md.asm(1199): warning: .cseg .db misalignment - padding zero byte
00013a 007c      	.DB  0x7C
                 
                 __GLOBAL_INI_TBL:
00013b 0001      	.DW  0x01
00013c 018a      	.DW  _sinseg_period
00013d 0274      	.DW  _0x3*2
                 
                 _0xFFFFFFFF:
00013e 0000      	.DW  0
                 
                 #define __GLOBAL_INI_TBL_PRESENT 1
                 
                 __RESET:
00013f 94f8      	CLI
000140 27ee      	CLR  R30
000141 bbef      	OUT  EECR,R30
000142 bfe5      	OUT  MCUCR,R30
                 
                 ;CLEAR R2-R14
000143 e08d      	LDI  R24,(14-2)+1
000144 e0a2      	LDI  R26,2
000145 27bb      	CLR  R27
                 __CLEAR_REG:
000146 93ed      	ST   X+,R30
000147 958a      	DEC  R24
000148 f7e9      	BRNE __CLEAR_REG
                 
                 ;CLEAR SRAM
000149 e080      	LDI  R24,LOW(__CLEAR_SRAM_SIZE)
00014a e092      	LDI  R25,HIGH(__CLEAR_SRAM_SIZE)
00014b e0a0      	LDI  R26,LOW(__SRAM_START)
00014c e0b1      	LDI  R27,HIGH(__SRAM_START)
                 __CLEAR_SRAM:
00014d 93ed      	ST   X+,R30
00014e 9701      	SBIW R24,1
00014f f7e9      	BRNE __CLEAR_SRAM
                 
                 ;GLOBAL VARIABLES INITIALIZATION
000150 e7e6      	LDI  R30,LOW(__GLOBAL_INI_TBL*2)
000151 e0f2      	LDI  R31,HIGH(__GLOBAL_INI_TBL*2)
                 __GLOBAL_INI_NEXT:
000152 9185      	LPM  R24,Z+
000153 9195      	LPM  R25,Z+
000154 9700      	SBIW R24,0
000155 f061      	BREQ __GLOBAL_INI_END
000156 91a5      	LPM  R26,Z+
000157 91b5      	LPM  R27,Z+
000158 9005      	LPM  R0,Z+
000159 9015      	LPM  R1,Z+
00015a 01bf      	MOVW R22,R30
00015b 01f0      	MOVW R30,R0
                 __GLOBAL_INI_LOOP:
00015c 9005      	LPM  R0,Z+
00015d 920d      	ST   X+,R0
00015e 9701      	SBIW R24,1
00015f f7e1      	BRNE __GLOBAL_INI_LOOP
000160 01fb      	MOVW R30,R22
000161 cff0      	RJMP __GLOBAL_INI_NEXT
                 __GLOBAL_INI_END:
                 
                 ;GPIOR0 INITIALIZATION
000162 e0e0      	LDI  R30,__GPIOR0_INIT
000163 bbee      	OUT  GPIOR0,R30
                 
                 ;HARDWARE STACK POINTER INITIALIZATION
000164 efef      	LDI  R30,LOW(__SRAM_END-__HEAP_SIZE)
000165 bfed      	OUT  SPL,R30
000166 e0e2      	LDI  R30,HIGH(__SRAM_END-__HEAP_SIZE)
000167 bfee      	OUT  SPH,R30
                 
                 ;DATA STACK POINTER INITIALIZATION
000168 e8c0      	LDI  R28,LOW(__SRAM_START+__DSTACK_SIZE)
000169 e0d1      	LDI  R29,HIGH(__SRAM_START+__DSTACK_SIZE)
                 
00016a c296      	RJMP _main
                 
                 	.ESEG
                 	.ORG 0
                 
                 	.DSEG
                 	.ORG 0x180
                 
                 	.CSEG
                 ;/*******************************************************
                 ;This program was created by the
                 ;CodeWizardAVR V3.12 Advanced
                 ;Automatic Program Generator
                 ;© Copyright 1998-2014 Pavel Haiduc, HP InfoTech s.r.l.
                 ;http://www.hpinfotech.com
                 ;
                 ;Project :
                 ;Version :
                 ;Date    : 08.06.2017
                 ;Author  :
                 ;Company :
                 ;Comments:
                 ;
                 ;
                 ;Chip type               : ATmega48
                 ;AVR Core Clock frequency: 8,000000 MHz
                 ;Memory model            : Small
                 ;External RAM size       : 0
                 ;Data Stack size         : 128
                 ;*******************************************************/
                 ;//початок Налаштування
                 ;#define DEAD_TIME_HALF      2   //Мертвий час (1 = 0.26 мкс)
                 ;#define ACCELERATION        40  //Прискорення  (Гц/сек)
                 ;#define NORM_VOLTAGE        512 // Нормальне значення робочої напруги в одиницях АЦП (Макс:1023)
                 ;#define MAX_BRAKE_VOLTAGE   562 // Максимальне допустипе значення напруги при гальмуванні в одиницях АЦП (Макс:1023)
                 ;#define CRYTYCAL_VOLTAGE    594 // Критичне значення напруги в одиницях АЦП (Макс:1023)
                 ;#define BRAKE_PERIOD        100 // Період гальмування двигуна (1/100 сек)
                 ;#define NORM_TEMP_DRIVER    200 // Нормальне значення температури драйвера в одиницях АЦП (Макс:1023)
                 ;#define MAX_TEMP_DRIVER     300 // Максимальне допустипе значення температури драйвера в одиницях АЦП (Макс:1023)
                 ;
                 ;
                 ;//Кінець налаштувань
                 ;
                 ;
                 ;#define SINE_TABLE_LENGTH   192 // Кількість значень в таблиці синусів
                 ;
                 ;#define DIRECTION_FORWARD       0 // Константа руху вперед
                 ;#define DIRECTION_REVERSE       1 // Константа руху назад
                 ;
                 ;#define MODE_STOP      0 // режим "Зупинений"
                 ;#define MODE_RUN       1 // режим "Робота"
                 ;#define MODE_BRAKE     2 // режим "Гальмування"
                 ;
                 ;#define ERROR_NO            0 // Помилки відчсутні
                 ;#define ERROR_POWER         1 // Відсутність живлення
                 ;#define ERROR_OVERVOLTAGE   2 // Перенапруга на конденсаторі
                 ;#define ERROR_OVERLOAD      3 // Перевантаження по струму
                 ;#define ERROR_DRIVERTEMP    4 // Перегрів драйвера
                 ;#define ERROR_MOTORTEMP     5 // Перегрів Двигуна
                 ;
                 ;// Роспіновка
                 ;#define FORWARD_BUT     PIND.1  //  Кнопка запуску вперед
                 ;#define STOP_BUT        PIND.0  //  Кнопка зупинки
                 ;#define REVERSE_BUT     PINC.5  //  Кнопка запуску назад
                 ;
                 ;#define POWER_SENS      PIND.2  // Пропажа сети - нормальное состояние лог.0, при лог.1 - сделать стоп привода, после по ...
                 ;#define CAP_VOLTAGE     3       //ADC3 - пренапряжение силовой части ( больше +340В).С силового конденсатора через делит ...
                 ;#define DRIVER_TEMP     4       //ADC4 - измерение перегрева силовой части. Согласно таблицам расчитать работы терморези ...
                 ;#define FREQUENCY_ADC   7       //ADC7 - регулировка частоты
                 ;#define NORMAL_LED      PORTC.2 // - светодиод индикации работы - начинает гореть спустя 4 секунды после (включения PD2) ...
                 ;#define ERROR_LED       PORTC.1 // - светодиод индикации аварии
                 ;#define OVER_LOAD       PINB.5  // - сверхток - лог.0 (подтянут через 10К к 5В) - при подаче лог.0 на этот вывод - резко ...
                 ;#define OVER_MOTORTEMP  PIND.4  // - Перегрев двигателя - нормальное состояние лог.0 при появлении лог.1. сделать стоп п ...
                 ;
                 ;// Кінець роспіновки
                 ;
                 ;#include <mega48.h>
                 	#ifndef __SLEEP_DEFINED__
                 	#define __SLEEP_DEFINED__
                 	.EQU __se_bit=0x01
                 	.EQU __sm_mask=0x0E
                 	.EQU __sm_adc_noise_red=0x02
                 	.EQU __sm_powerdown=0x04
                 	.EQU __sm_powersave=0x06
                 	.EQU __sm_standby=0x0C
                 	.SET power_ctrl_reg=smcr
                 	#endif
                 ;
                 ;#include <delay.h>
                 ;#include <md.h>
                 ;
                 ;void InsertDeadband(char compareValue, char * compareHighPtr, char * compareLowPtr); //Функція вставки метрвого часу
                 ;void gen_next_sinpos(void); // Функція генерації наступного значення ШІМ
                 ;void off_pwm(void); // Відключення всіх виходів на транзистори
                 ;void sys_timer(void); // Системний таймер -100 Гц
                 ;void set_freq(int fr); // Встановлення частоти синусоїди
                 ;unsigned int read_adc(unsigned char adc_input); // Функйція отримання значення АЦП
                 ;void check_button(); // Перевірка натисення кнопок
                 ;// Declare your global variables here
                 ;volatile int mode=0;
                 ;volatile int sinpos=0;
                 ;volatile int direct=0;
                 ;volatile float amplitude=0;
                 ;volatile int sinseg_period=124,sinseg=0;
                 
                 	.DSEG
                 ;volatile int sys_timer_cnt=0;
                 ;volatile int accel_cnt=0;
                 ;volatile int cur_freq=0,freq=0;
                 ;volatile int error_led_cnt=0,error_led_period=0,error=0;
                 ;volatile int overload_state=0,overvoltage_state=0,crytycal_voltage=0;
                 ;volatile int brake_cnt=0;
                 ;
                 ;#pragma warn-
                 ;eeprom  int driver_temp_state;
                 ;#pragma warn+
                 ;long map(long x, long in_min, long in_max, long out_min, long out_max)
                 ; 0000 0061 {
                 
                 	.CSEG
                 _map:
                 ; .FSTART _map
                 ; 0000 0062   return ((x - in_min) * (out_max - out_min) / (in_max - in_min) + out_min);
00016b d5a5      	RCALL __PUTPARD2
                 ;	x -> Y+16
                 ;	in_min -> Y+12
                 ;	in_max -> Y+8
                 ;	out_min -> Y+4
                 ;	out_max -> Y+0
00016c d2fc      	RCALL SUBOPT_0x0
                +
00016d 89e8     +LDD R30 , Y + 16
00016e 89f9     +LDD R31 , Y + 16 + 1
00016f 896a     +LDD R22 , Y + 16 + 2
000170 897b     +LDD R23 , Y + 16 + 3
                 	__GETD1S 16
000171 d4db      	RCALL __SUBD12
000172 937f      	PUSH R23
000173 936f      	PUSH R22
000174 93ff      	PUSH R31
000175 93ef      	PUSH R30
000176 d2f7      	RCALL SUBOPT_0x1
000177 d585      	RCALL __GETD1S0
000178 d4d4      	RCALL __SUBD12
000179 91af      	POP  R26
00017a 91bf      	POP  R27
00017b 918f      	POP  R24
00017c 919f      	POP  R25
00017d d517      	RCALL __MULD12
00017e 937f      	PUSH R23
00017f 936f      	PUSH R22
000180 93ff      	PUSH R31
000181 93ef      	PUSH R30
000182 d2e6      	RCALL SUBOPT_0x0
                +
000183 85e8     +LDD R30 , Y + 8
000184 85f9     +LDD R31 , Y + 8 + 1
000185 856a     +LDD R22 , Y + 8 + 2
000186 857b     +LDD R23 , Y + 8 + 3
                 	__GETD1S 8
000187 d4c5      	RCALL __SUBD12
000188 91af      	POP  R26
000189 91bf      	POP  R27
00018a 918f      	POP  R24
00018b 919f      	POP  R25
00018c d54a      	RCALL __DIVD21
00018d d2e0      	RCALL SUBOPT_0x1
00018e d4b9      	RCALL __ADDD12
00018f 9664      	ADIW R28,20
000190 9508      	RET
                 ; 0000 0063 }
                 ; .FEND
                 ;
                 ;interrupt [TIM0_OVF] void timer0_ovf_isr(void)
                 ; 0000 0066 {
                 _timer0_ovf_isr:
                 ; .FSTART _timer0_ovf_isr
000191 920a      	ST   -Y,R0
000192 921a      	ST   -Y,R1
000193 92fa      	ST   -Y,R15
000194 936a      	ST   -Y,R22
000195 937a      	ST   -Y,R23
000196 938a      	ST   -Y,R24
000197 939a      	ST   -Y,R25
000198 93aa      	ST   -Y,R26
000199 93ba      	ST   -Y,R27
00019a 93ea      	ST   -Y,R30
00019b 93fa      	ST   -Y,R31
00019c b7ef      	IN   R30,SREG
00019d 93ea      	ST   -Y,R30
                 ; 0000 0067      sinseg++;
00019e e8ac      	LDI  R26,LOW(_sinseg)
00019f e0b1      	LDI  R27,HIGH(_sinseg)
0001a0 d2d2      	RCALL SUBOPT_0x2
                 ; 0000 0068      if (sinseg>=sinseg_period)
0001a1 91e0 018a 	LDS  R30,_sinseg_period
0001a3 91f0 018b 	LDS  R31,_sinseg_period+1
0001a5 91a0 018c 	LDS  R26,_sinseg
0001a7 91b0 018d 	LDS  R27,_sinseg+1
0001a9 17ae      	CP   R26,R30
0001aa 07bf      	CPC  R27,R31
0001ab f0c4      	BRLT _0x4
                 ; 0000 0069      {
                 ; 0000 006A         sinseg=0;
0001ac e0e0      	LDI  R30,LOW(0)
0001ad 93e0 018c 	STS  _sinseg,R30
0001af 93e0 018d 	STS  _sinseg+1,R30
                 ; 0000 006B         if (amplitude==0 || mode==0){off_pwm();}
0001b1 d2c7      	RCALL SUBOPT_0x3
0001b2 f019      	BREQ _0x6
0001b3 d2cf      	RCALL SUBOPT_0x4
0001b4 9710      	SBIW R26,0
0001b5 f409      	BRNE _0x5
                 _0x6:
0001b6 d19c      	RCALL _off_pwm
                 ; 0000 006C         if (mode==1 && amplitude>0  && overvoltage_state==0) {gen_next_sinpos();}
                 _0x5:
0001b7 d2cb      	RCALL SUBOPT_0x4
0001b8 9711      	SBIW R26,1
0001b9 f441      	BRNE _0x9
0001ba d2be      	RCALL SUBOPT_0x3
0001bb f434      	BRGE _0x9
0001bc 91a0 019e 	LDS  R26,_overvoltage_state
0001be 91b0 019f 	LDS  R27,_overvoltage_state+1
0001c0 9710      	SBIW R26,0
0001c1 f009      	BREQ _0xA
                 _0x9:
0001c2 c001      	RJMP _0x8
                 _0xA:
0001c3 d0ca      	RCALL _gen_next_sinpos
                 ; 0000 006D      }
                 _0x8:
                 ; 0000 006E     sys_timer_cnt++;
                 _0x4:
0001c4 e8ae      	LDI  R26,LOW(_sys_timer_cnt)
0001c5 e0b1      	LDI  R27,HIGH(_sys_timer_cnt)
0001c6 d2ac      	RCALL SUBOPT_0x2
                 ; 0000 006F     if (sys_timer_cnt>138) {sys_timer_cnt=0; sys_timer();}
0001c7 91a0 018e 	LDS  R26,_sys_timer_cnt
0001c9 91b0 018f 	LDS  R27,_sys_timer_cnt+1
0001cb 38ab      	CPI  R26,LOW(0x8B)
0001cc e0e0      	LDI  R30,HIGH(0x8B)
0001cd 07be      	CPC  R27,R30
0001ce f034      	BRLT _0xB
0001cf e0e0      	LDI  R30,LOW(0)
0001d0 93e0 018e 	STS  _sys_timer_cnt,R30
0001d2 93e0 018f 	STS  _sys_timer_cnt+1,R30
0001d4 d00e      	RCALL _sys_timer
                 ; 0000 0070 }
                 _0xB:
0001d5 91e9      	LD   R30,Y+
0001d6 bfef      	OUT  SREG,R30
0001d7 91f9      	LD   R31,Y+
0001d8 91e9      	LD   R30,Y+
0001d9 91b9      	LD   R27,Y+
0001da 91a9      	LD   R26,Y+
0001db 9199      	LD   R25,Y+
0001dc 9189      	LD   R24,Y+
0001dd 9179      	LD   R23,Y+
0001de 9169      	LD   R22,Y+
0001df 90f9      	LD   R15,Y+
0001e0 9019      	LD   R1,Y+
0001e1 9009      	LD   R0,Y+
0001e2 9518      	RETI
                 ; .FEND
                 ;void sys_timer(void)
                 ; 0000 0072 {
                 _sys_timer:
                 ; .FSTART _sys_timer
                 ; 0000 0073    if (mode==MODE_RUN)
0001e3 d29f      	RCALL SUBOPT_0x4
0001e4 9711      	SBIW R26,1
0001e5 f009      	BREQ PC+2
0001e6 c03f      	RJMP _0xC
                 ; 0000 0074    {
                 ; 0000 0075         if(cur_freq<freq || cur_freq>freq)
0001e7 d2a0      	RCALL SUBOPT_0x5
0001e8 17ae      	CP   R26,R30
0001e9 07bf      	CPC  R27,R31
0001ea f024      	BRLT _0xE
0001eb d29c      	RCALL SUBOPT_0x5
0001ec 17ea      	CP   R30,R26
0001ed 07fb      	CPC  R31,R27
0001ee f534      	BRGE _0xD
                 _0xE:
                 ; 0000 0076         {
                 ; 0000 0077             accel_cnt=accel_cnt+ACCELERATION;
0001ef 91e0 0190 	LDS  R30,_accel_cnt
0001f1 91f0 0191 	LDS  R31,_accel_cnt+1
0001f3 96b8      	ADIW R30,40
0001f4 93e0 0190 	STS  _accel_cnt,R30
0001f6 93f0 0191 	STS  _accel_cnt+1,R31
                 ; 0000 0078             if (accel_cnt>99)
0001f8 91a0 0190 	LDS  R26,_accel_cnt
0001fa 91b0 0191 	LDS  R27,_accel_cnt+1
0001fc 36a4      	CPI  R26,LOW(0x64)
0001fd e0e0      	LDI  R30,HIGH(0x64)
0001fe 07be      	CPC  R27,R30
0001ff f0ac      	BRLT _0x10
                 ; 0000 0079             {
                 ; 0000 007A                 accel_cnt=0;
000200 e0e0      	LDI  R30,LOW(0)
000201 93e0 0190 	STS  _accel_cnt,R30
000203 93e0 0191 	STS  _accel_cnt+1,R30
                 ; 0000 007B                 if (cur_freq<freq) {cur_freq++;} else {cur_freq--;}
000205 d282      	RCALL SUBOPT_0x5
000206 17ae      	CP   R26,R30
000207 07bf      	CPC  R27,R31
000208 f41c      	BRGE _0x11
000209 d287      	RCALL SUBOPT_0x6
00020a 9631      	ADIW R30,1
00020b c002      	RJMP _0x49
                 _0x11:
00020c d284      	RCALL SUBOPT_0x6
00020d 9731      	SBIW R30,1
                 _0x49:
00020e 93fe      	ST   -X,R31
00020f 93ee      	ST   -X,R30
                 ; 0000 007C                 set_freq(cur_freq);
000210 91a0 0192 	LDS  R26,_cur_freq
000212 91b0 0193 	LDS  R27,_cur_freq+1
000214 d0f8      	RCALL _set_freq
                 ; 0000 007D             }
                 ; 0000 007E         }
                 _0x10:
                 ; 0000 007F       freq=map( read_adc(FREQUENCY_ADC),0,1023,0,60);
                 _0xD:
000215 e0a7      	LDI  R26,LOW(7)
000216 d1ce      	RCALL _read_adc
000217 2766      	CLR  R22
000218 2777      	CLR  R23
000219 d27c      	RCALL SUBOPT_0x7
                +
00021a efef     +LDI R30 , LOW ( 0x3FF )
00021b e0f3     +LDI R31 , HIGH ( 0x3FF )
00021c e060     +LDI R22 , BYTE3 ( 0x3FF )
00021d e070     +LDI R23 , BYTE4 ( 0x3FF )
                 	__GETD1N 0x3FF
00021e d277      	RCALL SUBOPT_0x7
                +
00021f e3ac     +LDI R26 , LOW ( 0x3C )
000220 e0b0     +LDI R27 , HIGH ( 0x3C )
000221 e080     +LDI R24 , BYTE3 ( 0x3C )
000222 e090     +LDI R25 , BYTE4 ( 0x3C )
                 	__GETD2N 0x3C
000223 df47      	RCALL _map
000224 d278      	RCALL SUBOPT_0x8
                 ; 0000 0080    }
                 ; 0000 0081    else
000225 c03f      	RJMP _0x13
                 _0xC:
                 ; 0000 0082    {
                 ; 0000 0083         cur_freq=1;
000226 d27b      	RCALL SUBOPT_0x9
000227 93e0 0192 	STS  _cur_freq,R30
000229 93f0 0193 	STS  _cur_freq+1,R31
                 ; 0000 0084         if (error>0)
00022b d279      	RCALL SUBOPT_0xA
00022c d522      	RCALL __CPW02
00022d f4cc      	BRGE _0x14
                 ; 0000 0085         {
                 ; 0000 0086              NORMAL_LED=0;
00022e 9842      	CBI  0x8,2
                 ; 0000 0087              error_led_cnt++;
00022f e9a6      	LDI  R26,LOW(_error_led_cnt)
000230 e0b1      	LDI  R27,HIGH(_error_led_cnt)
000231 d241      	RCALL SUBOPT_0x2
                 ; 0000 0088              if (error_led_cnt>error_led_period)
000232 91e0 0198 	LDS  R30,_error_led_period
000234 91f0 0199 	LDS  R31,_error_led_period+1
000236 91a0 0196 	LDS  R26,_error_led_cnt
000238 91b0 0197 	LDS  R27,_error_led_cnt+1
00023a 17ea      	CP   R30,R26
00023b 07fb      	CPC  R31,R27
00023c f454      	BRGE _0x17
                 ; 0000 0089              {
                 ; 0000 008A                 ERROR_LED=!ERROR_LED;
00023d 9b41      	SBIS 0x8,1
00023e c002      	RJMP _0x18
00023f 9841      	CBI  0x8,1
000240 c001      	RJMP _0x19
                 _0x18:
000241 9a41      	SBI  0x8,1
                 _0x19:
                 ; 0000 008B                 error_led_cnt=0;
000242 e0e0      	LDI  R30,LOW(0)
000243 93e0 0196 	STS  _error_led_cnt,R30
000245 93e0 0197 	STS  _error_led_cnt+1,R30
                 ; 0000 008C              }
                 ; 0000 008D         }
                 _0x17:
                 ; 0000 008E         if (mode==MODE_STOP  && error==ERROR_NO)
                 _0x14:
000247 d23b      	RCALL SUBOPT_0x4
000248 9710      	SBIW R26,0
000249 f419      	BRNE _0x1B
00024a d25a      	RCALL SUBOPT_0xA
00024b 9710      	SBIW R26,0
00024c f009      	BREQ _0x1C
                 _0x1B:
00024d c001      	RJMP _0x1A
                 _0x1C:
                 ; 0000 008F         {
                 ; 0000 0090             NORMAL_LED=1;
00024e 9a42      	SBI  0x8,2
                 ; 0000 0091         }
                 ; 0000 0092         if (mode==MODE_BRAKE)
                 _0x1A:
00024f d233      	RCALL SUBOPT_0x4
000250 9712      	SBIW R26,2
000251 f499      	BRNE _0x1F
                 ; 0000 0093         {
                 ; 0000 0094             freq=1;
000252 d24f      	RCALL SUBOPT_0x9
000253 d249      	RCALL SUBOPT_0x8
                 ; 0000 0095             brake_cnt++;
000254 eaa2      	LDI  R26,LOW(_brake_cnt)
000255 e0b1      	LDI  R27,HIGH(_brake_cnt)
000256 d21c      	RCALL SUBOPT_0x2
                 ; 0000 0096             if (brake_cnt>BRAKE_PERIOD) {brake_cnt=0;mode=MODE_STOP;}
000257 91a0 01a2 	LDS  R26,_brake_cnt
000259 91b0 01a3 	LDS  R27,_brake_cnt+1
00025b 36a5      	CPI  R26,LOW(0x65)
00025c e0e0      	LDI  R30,HIGH(0x65)
00025d 07be      	CPC  R27,R30
00025e f034      	BRLT _0x20
00025f e0e0      	LDI  R30,LOW(0)
000260 93e0 01a2 	STS  _brake_cnt,R30
000262 93e0 01a3 	STS  _brake_cnt+1,R30
000264 d245      	RCALL SUBOPT_0xB
                 ; 0000 0097         }
                 _0x20:
                 ; 0000 0098 
                 ; 0000 0099    }
                 _0x1F:
                 _0x13:
                 ; 0000 009A 
                 ; 0000 009B    check_button();
000265 d001      	RCALL _check_button
                 ; 0000 009C }
000266 9508      	RET
                 ; .FEND
                 ;void check_button()
                 ; 0000 009E {
                 _check_button:
                 ; .FSTART _check_button
                 ; 0000 009F     if (mode==MODE_STOP)
000267 d248      	RCALL SUBOPT_0xC
000268 f481      	BRNE _0x21
                 ; 0000 00A0     {
                 ; 0000 00A1         if(REVERSE_BUT==0) {mode=MODE_RUN;direct=DIRECTION_REVERSE;}
000269 9935      	SBIC 0x6,5
00026a c006      	RJMP _0x22
00026b d24a      	RCALL SUBOPT_0xD
00026c d235      	RCALL SUBOPT_0x9
00026d 93e0 0184 	STS  _direct,R30
00026f 93f0 0185 	STS  _direct+1,R31
                 ; 0000 00A2         if(FORWARD_BUT==0) {mode=MODE_RUN;direct=DIRECTION_FORWARD;}
                 _0x22:
000271 9949      	SBIC 0x9,1
000272 c006      	RJMP _0x23
000273 d242      	RCALL SUBOPT_0xD
000274 e0e0      	LDI  R30,LOW(0)
000275 93e0 0184 	STS  _direct,R30
000277 93e0 0185 	STS  _direct+1,R30
                 ; 0000 00A3     }
                 _0x23:
                 ; 0000 00A4     if(STOP_BUT==0)
                 _0x21:
000279 9948      	SBIC 0x9,0
00027a c012      	RJMP _0x24
                 ; 0000 00A5     {
                 ; 0000 00A6         if (mode==MODE_STOP)
00027b d234      	RCALL SUBOPT_0xC
00027c f451      	BRNE _0x25
                 ; 0000 00A7         {
                 ; 0000 00A8             overload_state=0;
00027d e0e0      	LDI  R30,LOW(0)
00027e 93e0 019c 	STS  _overload_state,R30
000280 93e0 019d 	STS  _overload_state+1,R30
                 ; 0000 00A9             crytycal_voltage=0;
000282 93e0 01a0 	STS  _crytycal_voltage,R30
000284 93e0 01a1 	STS  _crytycal_voltage+1,R30
                 ; 0000 00AA         }
                 ; 0000 00AB         else
000286 c006      	RJMP _0x26
                 _0x25:
                 ; 0000 00AC         {
                 ; 0000 00AD             mode=MODE_BRAKE;
000287 e0e2      	LDI  R30,LOW(2)
000288 e0f0      	LDI  R31,HIGH(2)
000289 93e0 0180 	STS  _mode,R30
00028b 93f0 0181 	STS  _mode+1,R31
                 ; 0000 00AE         }
                 _0x26:
                 ; 0000 00AF     }
                 ; 0000 00B0 }
                 _0x24:
00028d 9508      	RET
                 ; .FEND
                 ;void gen_next_sinpos(void)
                 ; 0000 00B2 {
                 _gen_next_sinpos:
                 ; .FSTART _gen_next_sinpos
                 ; 0000 00B3     char tempU,tempV,tempW;
                 ; 0000 00B4     char compareHigh, compareLow;
                 ; 0000 00B5     int tsp;
                 ; 0000 00B6     sinpos++;
00028e 9722      	SBIW R28,2
00028f d4c9      	RCALL __SAVELOCR6
                 ;	tempU -> R17
                 ;	tempV -> R16
                 ;	tempW -> R19
                 ;	compareHigh -> R18
                 ;	compareLow -> R21
                 ;	tsp -> Y+6
000290 e8a2      	LDI  R26,LOW(_sinpos)
000291 e0b1      	LDI  R27,HIGH(_sinpos)
000292 d1e0      	RCALL SUBOPT_0x2
                 ; 0000 00B7     if (sinpos==SINE_TABLE_LENGTH) sinpos=0;
000293 91a0 0182 	LDS  R26,_sinpos
000295 91b0 0183 	LDS  R27,_sinpos+1
000297 3ca0      	CPI  R26,LOW(0xC0)
000298 e0e0      	LDI  R30,HIGH(0xC0)
000299 07be      	CPC  R27,R30
00029a f429      	BRNE _0x27
00029b e0e0      	LDI  R30,LOW(0)
00029c 93e0 0182 	STS  _sinpos,R30
00029e 93e0 0183 	STS  _sinpos+1,R30
                 ; 0000 00B8     tsp=sinpos*3;
                 _0x27:
0002a0 91e0 0182 	LDS  R30,_sinpos
0002a2 91f0 0183 	LDS  R31,_sinpos+1
0002a4 e0a3      	LDI  R26,LOW(3)
0002a5 e0b0      	LDI  R27,HIGH(3)
0002a6 d3e9      	RCALL __MULW12
0002a7 83ee      	STD  Y+6,R30
0002a8 83ff      	STD  Y+6+1,R31
                 ; 0000 00B9     tempU=sineTable[tsp]*amplitude;
0002a9 d212      	RCALL SUBOPT_0xE
0002aa 5cec      	SUBI R30,LOW(-_sineTable*2)
0002ab 4fff      	SBCI R31,HIGH(-_sineTable*2)
0002ac d212      	RCALL SUBOPT_0xF
0002ad 2f1e      	MOV  R17,R30
                 ; 0000 00BA     if (direct == DIRECTION_FORWARD)
0002ae 91e0 0184 	LDS  R30,_direct
0002b0 91f0 0185 	LDS  R31,_direct+1
0002b2 9730      	SBIW R30,0
0002b3 f429      	BRNE _0x28
                 ; 0000 00BB     {
                 ; 0000 00BC         tempV = sineTable[tsp+1]*amplitude;
0002b4 d219      	RCALL SUBOPT_0x10
0002b5 2f0e      	MOV  R16,R30
                 ; 0000 00BD         tempW = sineTable[tsp+2]*amplitude;
0002b6 d21b      	RCALL SUBOPT_0x11
0002b7 2f3e      	MOV  R19,R30
                 ; 0000 00BE     }
                 ; 0000 00BF     else
0002b8 c004      	RJMP _0x29
                 _0x28:
                 ; 0000 00C0     {
                 ; 0000 00C1         tempW = sineTable[tsp+1]*amplitude;
0002b9 d214      	RCALL SUBOPT_0x10
0002ba 2f3e      	MOV  R19,R30
                 ; 0000 00C2         tempV = sineTable[tsp+2]*amplitude;
0002bb d216      	RCALL SUBOPT_0x11
0002bc 2f0e      	MOV  R16,R30
                 ; 0000 00C3     }
                 _0x29:
                 ; 0000 00C4 
                 ; 0000 00C5     InsertDeadband(tempU, &compareHigh, &compareLow);
0002bd 931a      	ST   -Y,R17
0002be b7ed      	IN   R30,SPL
0002bf b7fe      	IN   R31,SPH
0002c0 93fa      	ST   -Y,R31
0002c1 93ea      	ST   -Y,R30
0002c2 932f      	PUSH R18
0002c3 b7ad      	IN   R26,SPL
0002c4 b7be      	IN   R27,SPH
0002c5 935f      	PUSH R21
0002c6 d027      	RCALL _InsertDeadband
0002c7 915f      	POP  R21
0002c8 912f      	POP  R18
                 ; 0000 00C6     OCR0A = compareHigh;
0002c9 bd27      	OUT  0x27,R18
                 ; 0000 00C7     OCR0B = compareLow;
0002ca bd58      	OUT  0x28,R21
                 ; 0000 00C8 
                 ; 0000 00C9     InsertDeadband(tempV, &compareHigh, &compareLow);
0002cb 930a      	ST   -Y,R16
0002cc b7ed      	IN   R30,SPL
0002cd b7fe      	IN   R31,SPH
0002ce 93fa      	ST   -Y,R31
0002cf 93ea      	ST   -Y,R30
0002d0 932f      	PUSH R18
0002d1 b7ad      	IN   R26,SPL
0002d2 b7be      	IN   R27,SPH
0002d3 935f      	PUSH R21
0002d4 d019      	RCALL _InsertDeadband
0002d5 915f      	POP  R21
0002d6 912f      	POP  R18
                 ; 0000 00CA     OCR1AL = compareHigh;
0002d7 9320 0088 	STS  136,R18
                 ; 0000 00CB     OCR1BL = compareLow;
0002d9 9350 008a 	STS  138,R21
                 ; 0000 00CC 
                 ; 0000 00CD     InsertDeadband(tempW, &compareHigh, &compareLow);
0002db 933a      	ST   -Y,R19
0002dc b7ed      	IN   R30,SPL
0002dd b7fe      	IN   R31,SPH
0002de 93fa      	ST   -Y,R31
0002df 93ea      	ST   -Y,R30
0002e0 932f      	PUSH R18
0002e1 b7ad      	IN   R26,SPL
0002e2 b7be      	IN   R27,SPH
0002e3 935f      	PUSH R21
0002e4 d009      	RCALL _InsertDeadband
0002e5 915f      	POP  R21
0002e6 912f      	POP  R18
                 ; 0000 00CE     OCR2A = compareHigh;
0002e7 9320 00b3 	STS  179,R18
                 ; 0000 00CF     OCR2B = compareLow;
0002e9 9350 00b4 	STS  180,R21
                 ; 0000 00D0 }
0002eb d474      	RCALL __LOADLOCR6
0002ec 9628      	ADIW R28,8
0002ed 9508      	RET
                 ; .FEND
                 ;
                 ;void InsertDeadband(char compareValue, char * compareHighPtr, char * compareLowPtr)   //вставка метвого часу
                 ; 0000 00D3 {
                 _InsertDeadband:
                 ; .FSTART _InsertDeadband
                 ; 0000 00D4   if (compareValue <= DEAD_TIME_HALF)
0002ee 93ba      	ST   -Y,R27
0002ef 93aa      	ST   -Y,R26
                 ;	compareValue -> Y+4
                 ;	*compareHighPtr -> Y+2
                 ;	*compareLowPtr -> Y+0
0002f0 81ac      	LDD  R26,Y+4
0002f1 30a3      	CPI  R26,LOW(0x3)
0002f2 f428      	BRSH _0x2A
                 ; 0000 00D5   {
                 ; 0000 00D6     *compareHighPtr = 0x00;
0002f3 d1e2      	RCALL SUBOPT_0x12
0002f4 e0e0      	LDI  R30,LOW(0)
0002f5 93ec      	ST   X,R30
                 ; 0000 00D7     *compareLowPtr = compareValue;
0002f6 81ec      	LDD  R30,Y+4
0002f7 c010      	RJMP _0x4A
                 ; 0000 00D8   }
                 ; 0000 00D9   else if (compareValue >= (0xff - DEAD_TIME_HALF))
                 _0x2A:
0002f8 81ac      	LDD  R26,Y+4
0002f9 3fad      	CPI  R26,LOW(0xFD)
0002fa f038      	BRLO _0x2C
                 ; 0000 00DA   {
                 ; 0000 00DB     *compareHighPtr = 0xff - (2 * DEAD_TIME_HALF);
0002fb d1da      	RCALL SUBOPT_0x12
0002fc efeb      	LDI  R30,LOW(251)
0002fd 93ec      	ST   X,R30
                 ; 0000 00DC     *compareLowPtr = 0xff;
0002fe 81a8      	LD   R26,Y
0002ff 81b9      	LDD  R27,Y+1
000300 efef      	LDI  R30,LOW(255)
000301 c008      	RJMP _0x4B
                 ; 0000 00DD   }
                 ; 0000 00DE   else
                 _0x2C:
                 ; 0000 00DF   {
                 ; 0000 00E0     *compareHighPtr = compareValue - DEAD_TIME_HALF;
000302 81ec      	LDD  R30,Y+4
000303 50e2      	SUBI R30,LOW(2)
000304 d1d1      	RCALL SUBOPT_0x12
000305 93ec      	ST   X,R30
                 ; 0000 00E1     *compareLowPtr = compareValue + DEAD_TIME_HALF;
000306 81ec      	LDD  R30,Y+4
000307 5fee      	SUBI R30,-LOW(2)
                 _0x4A:
000308 81a8      	LD   R26,Y
000309 81b9      	LDD  R27,Y+1
                 _0x4B:
00030a 93ec      	ST   X,R30
                 ; 0000 00E2   }
                 ; 0000 00E3 }
00030b 9625      	ADIW R28,5
00030c 9508      	RET
                 ; .FEND
                 ;
                 ;void set_freq(int fr)
                 ; 0000 00E6 {
                 _set_freq:
                 ; .FSTART _set_freq
                 ; 0000 00E7    float amp;
                 ; 0000 00E8    if (fr==0) {amplitude=0;sinseg_period=124; return;}
00030d 93ba      	ST   -Y,R27
00030e 93aa      	ST   -Y,R26
00030f 9724      	SBIW R28,4
                 ;	fr -> Y+4
                 ;	amp -> Y+0
000310 d1c8      	RCALL SUBOPT_0x13
000311 9730      	SBIW R30,0
000312 f469      	BRNE _0x2E
000313 e0e0      	LDI  R30,LOW(0)
000314 93e0 0186 	STS  _amplitude,R30
000316 93e0 0187 	STS  _amplitude+1,R30
000318 93e0 0188 	STS  _amplitude+2,R30
00031a 93e0 0189 	STS  _amplitude+3,R30
00031c e7ec      	LDI  R30,LOW(124)
00031d e0f0      	LDI  R31,HIGH(124)
00031e d1bd      	RCALL SUBOPT_0x14
00031f c0c3      	RJMP _0x2000001
                 ; 0000 00E9    sinseg_period=124/fr;
                 _0x2E:
000320 d1b8      	RCALL SUBOPT_0x13
000321 e7ac      	LDI  R26,LOW(124)
000322 e0b0      	LDI  R27,HIGH(124)
000323 d389      	RCALL __DIVW21
000324 d1b7      	RCALL SUBOPT_0x14
                 ; 0000 00EA    amp=map(fr,1,50,30,100);
000325 d1b3      	RCALL SUBOPT_0x13
000326 d337      	RCALL __CWD1
000327 d3e4      	RCALL __PUTPARD1
                +
000328 e0e1     +LDI R30 , LOW ( 0x1 )
000329 e0f0     +LDI R31 , HIGH ( 0x1 )
00032a e060     +LDI R22 , BYTE3 ( 0x1 )
00032b e070     +LDI R23 , BYTE4 ( 0x1 )
                 	__GETD1N 0x1
00032c d3df      	RCALL __PUTPARD1
                +
00032d e3e2     +LDI R30 , LOW ( 0x32 )
00032e e0f0     +LDI R31 , HIGH ( 0x32 )
00032f e060     +LDI R22 , BYTE3 ( 0x32 )
000330 e070     +LDI R23 , BYTE4 ( 0x32 )
                 	__GETD1N 0x32
000331 d3da      	RCALL __PUTPARD1
                +
000332 e1ee     +LDI R30 , LOW ( 0x1E )
000333 e0f0     +LDI R31 , HIGH ( 0x1E )
000334 e060     +LDI R22 , BYTE3 ( 0x1E )
000335 e070     +LDI R23 , BYTE4 ( 0x1E )
                 	__GETD1N 0x1E
000336 d3d5      	RCALL __PUTPARD1
                +
000337 e6a4     +LDI R26 , LOW ( 0x64 )
000338 e0b0     +LDI R27 , HIGH ( 0x64 )
000339 e080     +LDI R24 , BYTE3 ( 0x64 )
00033a e090     +LDI R25 , BYTE4 ( 0x64 )
                 	__GETD2N 0x64
00033b de2f      	RCALL _map
00033c d22a      	RCALL __CDF1
00033d d1a3      	RCALL SUBOPT_0x15
                 ; 0000 00EB    if (amp>100) amp=100;
00033e d1a4      	RCALL SUBOPT_0x16
00033f d2e8      	RCALL __CMPF12
000340 f009      	BREQ PC+2
000341 f408      	BRCC PC+2
000342 c005      	RJMP _0x2F
                +
000343 e0e0     +LDI R30 , LOW ( 0x42C80000 )
000344 e0f0     +LDI R31 , HIGH ( 0x42C80000 )
000345 ec68     +LDI R22 , BYTE3 ( 0x42C80000 )
000346 e472     +LDI R23 , BYTE4 ( 0x42C80000 )
                 	__GETD1N 0x42C80000
000347 d199      	RCALL SUBOPT_0x15
                 ; 0000 00EC    amplitude=amp/100;
                 _0x2F:
000348 d19a      	RCALL SUBOPT_0x16
000349 d299      	RCALL __DIVF21
00034a 93e0 0186 	STS  _amplitude,R30
00034c 93f0 0187 	STS  _amplitude+1,R31
00034e 9360 0188 	STS  _amplitude+2,R22
000350 9370 0189 	STS  _amplitude+3,R23
                 ; 0000 00ED 
                 ; 0000 00EE }
000352 c090      	RJMP _0x2000001
                 ; .FEND
                 ;void off_pwm(void)
                 ; 0000 00F0 {
                 _off_pwm:
                 ; .FSTART _off_pwm
                 ; 0000 00F1     OCR0A=0x00;
000353 d195      	RCALL SUBOPT_0x17
                 ; 0000 00F2     OCR0B=0xFF;
                 ; 0000 00F3     OCR1AL=0x00;
000354 e0e0      	LDI  R30,LOW(0)
000355 93e0 0088 	STS  136,R30
                 ; 0000 00F4     OCR1BL=0xFF;
000357 d196      	RCALL SUBOPT_0x18
                 ; 0000 00F5     OCR2A=0x00;
000358 d19a      	RCALL SUBOPT_0x19
                 ; 0000 00F6     OCR2B=0xFF;
                 ; 0000 00F7 }
000359 9508      	RET
                 ; .FEND
                 ;void check_error(void)
                 ; 0000 00F9 {
                 _check_error:
                 ; .FSTART _check_error
                 ; 0000 00FA     volatile int tmp_error=0;
                 ; 0000 00FB     volatile int capvoltage,driver_t=0;
                 ; 0000 00FC      capvoltage=read_adc(CAP_VOLTAGE);
00035a 9726      	SBIW R28,6
00035b e0e0      	LDI  R30,LOW(0)
00035c 83e8      	ST   Y,R30
00035d 83e9      	STD  Y+1,R30
00035e 83ea      	STD  Y+2,R30
00035f 83eb      	STD  Y+3,R30
000360 83ec      	STD  Y+4,R30
000361 83ed      	STD  Y+5,R30
                 ;	tmp_error -> Y+4
                 ;	capvoltage -> Y+2
                 ;	driver_t -> Y+0
000362 e0a3      	LDI  R26,LOW(3)
000363 d081      	RCALL _read_adc
000364 83ea      	STD  Y+2,R30
000365 83fb      	STD  Y+2+1,R31
                 ; 0000 00FD     //POWER_SENS
                 ; 0000 00FE 
                 ; 0000 00FF     if (capvoltage<NORM_VOLTAGE){overvoltage_state=0;}
000366 d16f      	RCALL SUBOPT_0x12
000367 30a0      	CPI  R26,LOW(0x200)
000368 e0e2      	LDI  R30,HIGH(0x200)
000369 07be      	CPC  R27,R30
00036a f42c      	BRGE _0x30
00036b e0e0      	LDI  R30,LOW(0)
00036c 93e0 019e 	STS  _overvoltage_state,R30
00036e 93e0 019f 	STS  _overvoltage_state+1,R30
                 ; 0000 0100     if (capvoltage>MAX_BRAKE_VOLTAGE) {off_pwm();overvoltage_state=1;}
                 _0x30:
000370 d165      	RCALL SUBOPT_0x12
000371 33a3      	CPI  R26,LOW(0x233)
000372 e0e2      	LDI  R30,HIGH(0x233)
000373 07be      	CPC  R27,R30
000374 f034      	BRLT _0x31
000375 dfdd      	RCALL _off_pwm
000376 d12b      	RCALL SUBOPT_0x9
000377 93e0 019e 	STS  _overvoltage_state,R30
000379 93f0 019f 	STS  _overvoltage_state+1,R31
                 ; 0000 0101     if (capvoltage>CRYTYCAL_VOLTAGE || crytycal_voltage==1) {off_pwm(); mode=MODE_STOP;crytycal_voltage=1; error_led_per ...
                 _0x31:
00037b d15a      	RCALL SUBOPT_0x12
00037c 35a3      	CPI  R26,LOW(0x253)
00037d e0e2      	LDI  R30,HIGH(0x253)
00037e 07be      	CPC  R27,R30
00037f f434      	BRGE _0x33
000380 91a0 01a0 	LDS  R26,_crytycal_voltage
000382 91b0 01a1 	LDS  R27,_crytycal_voltage+1
000384 9711      	SBIW R26,1
000385 f469      	BRNE _0x32
                 _0x33:
000386 dfcc      	RCALL _off_pwm
000387 d122      	RCALL SUBOPT_0xB
000388 d119      	RCALL SUBOPT_0x9
000389 93e0 01a0 	STS  _crytycal_voltage,R30
00038b 93f0 01a1 	STS  _crytycal_voltage+1,R31
00038d e2e1      	LDI  R30,LOW(33)
00038e e0f0      	LDI  R31,HIGH(33)
00038f d169      	RCALL SUBOPT_0x1A
000390 e0e2      	LDI  R30,LOW(2)
000391 e0f0      	LDI  R31,HIGH(2)
000392 d16b      	RCALL SUBOPT_0x1B
                 ; 0000 0102     driver_t=read_adc(DRIVER_TEMP);
                 _0x32:
000393 e0a4      	LDI  R26,LOW(4)
000394 d050      	RCALL _read_adc
000395 83e8      	ST   Y,R30
000396 83f9      	STD  Y+1,R31
                 ; 0000 0103     if (driver_t>MAX_TEMP_DRIVER || driver_temp_state==1)   {off_pwm(); mode=MODE_STOP;driver_temp_state=1; error_led_pe ...
000397 81a8      	LD   R26,Y
000398 81b9      	LDD  R27,Y+1
000399 32ad      	CPI  R26,LOW(0x12D)
00039a e0e1      	LDI  R30,HIGH(0x12D)
00039b 07be      	CPC  R27,R30
00039c f43c      	BRGE _0x36
00039d e0a0      	LDI  R26,LOW(_driver_temp_state)
00039e e0b0      	LDI  R27,HIGH(_driver_temp_state)
00039f d388      	RCALL __EEPROMRDW
0003a0 30e1      	CPI  R30,LOW(0x1)
0003a1 e0a0      	LDI  R26,HIGH(0x1)
0003a2 07fa      	CPC  R31,R26
0003a3 f461      	BRNE _0x35
                 _0x36:
0003a4 dfae      	RCALL _off_pwm
0003a5 d104      	RCALL SUBOPT_0xB
0003a6 e0a0      	LDI  R26,LOW(_driver_temp_state)
0003a7 e0b0      	LDI  R27,HIGH(_driver_temp_state)
0003a8 d0f9      	RCALL SUBOPT_0x9
0003a9 d38d      	RCALL __EEPROMWRW
0003aa e3e2      	LDI  R30,LOW(50)
0003ab e0f0      	LDI  R31,HIGH(50)
0003ac d14c      	RCALL SUBOPT_0x1A
0003ad e0e4      	LDI  R30,LOW(4)
0003ae e0f0      	LDI  R31,HIGH(4)
0003af d14e      	RCALL SUBOPT_0x1B
                 ; 0000 0104     if (driver_t<NORM_TEMP_DRIVER)  {driver_temp_state=0;}
                 _0x35:
0003b0 81a8      	LD   R26,Y
0003b1 81b9      	LDD  R27,Y+1
0003b2 3ca8      	CPI  R26,LOW(0xC8)
0003b3 e0e0      	LDI  R30,HIGH(0xC8)
0003b4 07be      	CPC  R27,R30
0003b5 f42c      	BRGE _0x38
0003b6 e0a0      	LDI  R26,LOW(_driver_temp_state)
0003b7 e0b0      	LDI  R27,HIGH(_driver_temp_state)
0003b8 e0e0      	LDI  R30,LOW(0)
0003b9 e0f0      	LDI  R31,HIGH(0)
0003ba d37c      	RCALL __EEPROMWRW
                 ; 0000 0105     if (OVER_LOAD==0 || overload_state==1) {off_pwm(); mode=MODE_STOP;overload_state=1; ERROR_LED=1;tmp_error=ERROR_OVER ...
                 _0x38:
0003bb 9b1d      	SBIS 0x3,5
0003bc c006      	RJMP _0x3A
0003bd 91a0 019c 	LDS  R26,_overload_state
0003bf 91b0 019d 	LDS  R27,_overload_state+1
0003c1 9711      	SBIW R26,1
0003c2 f459      	BRNE _0x39
                 _0x3A:
0003c3 df8f      	RCALL _off_pwm
0003c4 d0e5      	RCALL SUBOPT_0xB
0003c5 d0dc      	RCALL SUBOPT_0x9
0003c6 93e0 019c 	STS  _overload_state,R30
0003c8 93f0 019d 	STS  _overload_state+1,R31
0003ca 9a41      	SBI  0x8,1
0003cb e0e3      	LDI  R30,LOW(3)
0003cc e0f0      	LDI  R31,HIGH(3)
0003cd d130      	RCALL SUBOPT_0x1B
                 ; 0000 0106     if (OVER_MOTORTEMP==1) {mode=MODE_STOP; tmp_error=ERROR_MOTORTEMP;error_led_period=100;}
                 _0x39:
0003ce 9b4c      	SBIS 0x9,4
0003cf c007      	RJMP _0x3E
0003d0 d0d9      	RCALL SUBOPT_0xB
0003d1 e0e5      	LDI  R30,LOW(5)
0003d2 e0f0      	LDI  R31,HIGH(5)
0003d3 d12a      	RCALL SUBOPT_0x1B
0003d4 e6e4      	LDI  R30,LOW(100)
0003d5 e0f0      	LDI  R31,HIGH(100)
0003d6 d122      	RCALL SUBOPT_0x1A
                 ; 0000 0107     error=tmp_error;
                 _0x3E:
0003d7 d101      	RCALL SUBOPT_0x13
0003d8 93e0 019a 	STS  _error,R30
0003da 93f0 019b 	STS  _error+1,R31
                 ; 0000 0108     if (error==0) {ERROR_LED=0;}
0003dc 91e0 019a 	LDS  R30,_error
0003de 91f0 019b 	LDS  R31,_error+1
0003e0 9730      	SBIW R30,0
0003e1 f409      	BRNE _0x3F
0003e2 9841      	CBI  0x8,1
                 ; 0000 0109 }
                 _0x3F:
                 _0x2000001:
0003e3 9626      	ADIW R28,6
0003e4 9508      	RET
                 ; .FEND
                 ;// Voltage Reference: AVCC pin
                 ;#define ADC_VREF_TYPE ((0<<REFS1) | (1<<REFS0) | (0<<ADLAR))
                 ;
                 ;// Read the AD conversion result
                 ;unsigned int read_adc(unsigned char adc_input)
                 ; 0000 010F {
                 _read_adc:
                 ; .FSTART _read_adc
                 ; 0000 0110     ADMUX=adc_input | ADC_VREF_TYPE;
0003e5 93aa      	ST   -Y,R26
                 ;	adc_input -> Y+0
0003e6 81e8      	LD   R30,Y
0003e7 64e0      	ORI  R30,0x40
0003e8 93e0 007c 	STS  124,R30
                 ; 0000 0111     // Delay needed for the stabilization of the ADC input voltage
                 ; 0000 0112     delay_us(10);
                +
0003ea e18b     +LDI R24 , LOW ( 27 )
                +__DELAY_USB_LOOP :
0003eb 958a     +DEC R24
0003ec f7f1     +BRNE __DELAY_USB_LOOP
                 	__DELAY_USB 27
                 ; 0000 0113     // Start the AD conversion
                 ; 0000 0114     ADCSRA|=(1<<ADSC);
0003ed 91e0 007a 	LDS  R30,122
0003ef 64e0      	ORI  R30,0x40
0003f0 93e0 007a 	STS  122,R30
                 ; 0000 0115     // Wait for the AD conversion to complete
                 ; 0000 0116     while ((ADCSRA & (1<<ADIF))==0);
                 _0x42:
0003f2 91e0 007a 	LDS  R30,122
0003f4 71e0      	ANDI R30,LOW(0x10)
0003f5 f3e1      	BREQ _0x42
                 ; 0000 0117     ADCSRA|=(1<<ADIF);
0003f6 91e0 007a 	LDS  R30,122
0003f8 61e0      	ORI  R30,0x10
0003f9 93e0 007a 	STS  122,R30
                 ; 0000 0118     return ADCW;
0003fb 91e0 0078 	LDS  R30,120
0003fd 91f0 0079 	LDS  R31,120+1
0003ff 9621      	ADIW R28,1
000400 9508      	RET
                 ; 0000 0119 }
                 ; .FEND
                 ;
                 ;void main(void)
                 ; 0000 011C {
                 _main:
                 ; .FSTART _main
                 ; 0000 011D // Declare your local variables here
                 ; 0000 011E // Crystal Oscillator division factor: 1
                 ; 0000 011F #pragma optsize-
                 ; 0000 0120 CLKPR=(1<<CLKPCE);
000401 e8e0      	LDI  R30,LOW(128)
000402 93e0 0061 	STS  97,R30
                 ; 0000 0121 CLKPR=(0<<CLKPCE) | (0<<CLKPS3) | (0<<CLKPS2) | (0<<CLKPS1) | (0<<CLKPS0);
000404 e0e0      	LDI  R30,LOW(0)
000405 93e0 0061 	STS  97,R30
                 ; 0000 0122 #ifdef _OPTIMIZE_SIZE_
                 ; 0000 0123 #pragma optsize+
                 ; 0000 0124 #endif
                 ; 0000 0125 
                 ; 0000 0126 // Input/Output Ports initialization
                 ; 0000 0127 // Port B initialization
                 ; 0000 0128 // Function: Bit7=In Bit6=In Bit5=In Bit4=In Bit3=Out Bit2=Out Bit1=Out Bit0=In
                 ; 0000 0129 DDRB=(0<<DDB7) | (0<<DDB6) | (0<<DDB5) | (0<<DDB4) | (1<<DDB3) | (1<<DDB2) | (1<<DDB1) | (1<<DDB0);
000407 e0ef      	LDI  R30,LOW(15)
000408 b9e4      	OUT  0x4,R30
                 ; 0000 012A // State: Bit7=T Bit6=T Bit5=T Bit4=T Bit3=0 Bit2=0 Bit1=0 Bit0=T
                 ; 0000 012B PORTB=(0<<PORTB7) | (0<<PORTB6) | (0<<PORTB5) | (0<<PORTB4) | (0<<PORTB3) | (0<<PORTB2) | (0<<PORTB1) | (0<<PORTB0);
000409 e0e0      	LDI  R30,LOW(0)
00040a b9e5      	OUT  0x5,R30
                 ; 0000 012C 
                 ; 0000 012D // Port C initialization
                 ; 0000 012E // Function: Bit6=In Bit5=In Bit4=In Bit3=In Bit2=out Bit1=out Bit0=In
                 ; 0000 012F DDRC=(0<<DDC6) | (0<<DDC5) | (0<<DDC4) | (0<<DDC3) | (1<<DDC2) | (1<<DDC1) | (0<<DDC0);
00040b e0e6      	LDI  R30,LOW(6)
00040c b9e7      	OUT  0x7,R30
                 ; 0000 0130 // State: Bit6=T Bit5=T Bit4=T Bit3=T Bit2=T Bit1=T Bit0=T
                 ; 0000 0131 PORTC=(0<<PORTC6) | (0<<PORTC5) | (0<<PORTC4) | (0<<PORTC3) | (0<<PORTC2) | (0<<PORTC1) | (0<<PORTC0);
00040d e0e0      	LDI  R30,LOW(0)
00040e b9e8      	OUT  0x8,R30
                 ; 0000 0132 
                 ; 0000 0133 // Port D initialization
                 ; 0000 0134 // Function: Bit7=In Bit6=Out Bit5=Out Bit4=In Bit3=Out Bit2=In Bit1=In Bit0=In
                 ; 0000 0135 DDRD=(0<<DDD7) | (1<<DDD6) | (1<<DDD5) | (0<<DDD4) | (1<<DDD3) | (0<<DDD2) | (0<<DDD1) | (0<<DDD0);
00040f e6e8      	LDI  R30,LOW(104)
000410 b9ea      	OUT  0xA,R30
                 ; 0000 0136 // State: Bit7=T Bit6=0 Bit5=0 Bit4=T Bit3=0 Bit2=T Bit1=T Bit0=T
                 ; 0000 0137 PORTD=(0<<PORTD7) | (0<<PORTD6) | (0<<PORTD5) | (0<<PORTD4) | (0<<PORTD3) | (0<<PORTD2) | (0<<PORTD1) | (0<<PORTD0);
000411 e0e0      	LDI  R30,LOW(0)
000412 b9eb      	OUT  0xB,R30
                 ; 0000 0138 
                 ; 0000 0139 // Timer/Counter 0 initialization
                 ; 0000 013A // Clock source: System Clock
                 ; 0000 013B // Clock value: 8000,000 kHz
                 ; 0000 013C // Mode: Phase correct PWM top=0xFF
                 ; 0000 013D // OC0A output: Non-Inverted PWM
                 ; 0000 013E // OC0B output: Inverted PWM
                 ; 0000 013F // Timer Period: 0,06375 ms
                 ; 0000 0140 // Output Pulse(s):
                 ; 0000 0141 // OC0A Period: 0,06375 ms Width: 0 us// OC0B Period: 0,06375 ms Width: 0,06375 ms
                 ; 0000 0142 TCCR0A=(1<<COM0A1) | (0<<COM0A0) | (1<<COM0B1) | (1<<COM0B0) | (0<<WGM01) | (1<<WGM00);
000413 ebe1      	LDI  R30,LOW(177)
000414 bde4      	OUT  0x24,R30
                 ; 0000 0143 TCCR0B=(0<<WGM02) | (0<<CS02) | (0<<CS01) | (1<<CS00);
000415 e0e1      	LDI  R30,LOW(1)
000416 bde5      	OUT  0x25,R30
                 ; 0000 0144 TCNT0=0x00;
000417 e0e0      	LDI  R30,LOW(0)
000418 bde6      	OUT  0x26,R30
                 ; 0000 0145 OCR0A=0x00;
000419 d0cf      	RCALL SUBOPT_0x17
                 ; 0000 0146 OCR0B=0xFF;
                 ; 0000 0147 
                 ; 0000 0148 // Timer/Counter 1 initialization
                 ; 0000 0149 // Clock source: System Clock
                 ; 0000 014A // Clock value: 8000,000 kHz
                 ; 0000 014B // Mode: Ph. correct PWM top=0x00FF
                 ; 0000 014C // OC1A output: Non-Inverted PWM
                 ; 0000 014D // OC1B output: Inverted PWM
                 ; 0000 014E // Noise Canceler: Off
                 ; 0000 014F // Input Capture on Falling Edge
                 ; 0000 0150 // Timer Period: 0,06375 ms
                 ; 0000 0151 // Output Pulse(s):
                 ; 0000 0152 // OC1A Period: 0,06375 ms Width: 0 us// OC1B Period: 0,06375 ms Width: 0,06375 ms
                 ; 0000 0153 // Timer1 Overflow Interrupt: On
                 ; 0000 0154 // Input Capture Interrupt: Off
                 ; 0000 0155 // Compare A Match Interrupt: Off
                 ; 0000 0156 // Compare B Match Interrupt: Off
                 ; 0000 0157 TCCR1A=(1<<COM1A1) | (0<<COM1A0) | (1<<COM1B1) | (1<<COM1B0) | (0<<WGM11) | (1<<WGM10);
00041a ebe1      	LDI  R30,LOW(177)
00041b 93e0 0080 	STS  128,R30
                 ; 0000 0158 TCCR1B=(0<<ICNC1) | (0<<ICES1) | (0<<WGM13) | (0<<WGM12) | (0<<CS12) | (0<<CS11) | (1<<CS10);
00041d e0e1      	LDI  R30,LOW(1)
00041e 93e0 0081 	STS  129,R30
                 ; 0000 0159 TCNT1H=0x00;
000420 e0e0      	LDI  R30,LOW(0)
000421 93e0 0085 	STS  133,R30
                 ; 0000 015A TCNT1L=0x00;
000423 93e0 0084 	STS  132,R30
                 ; 0000 015B ICR1H=0x00;
000425 93e0 0087 	STS  135,R30
                 ; 0000 015C ICR1L=0x00;
000427 93e0 0086 	STS  134,R30
                 ; 0000 015D OCR1AH=0x00;
000429 93e0 0089 	STS  137,R30
                 ; 0000 015E OCR1AL=0x00;
00042b 93e0 0088 	STS  136,R30
                 ; 0000 015F OCR1BH=0x00;
00042d 93e0 008b 	STS  139,R30
                 ; 0000 0160 OCR1BL=0xFF;
00042f d0be      	RCALL SUBOPT_0x18
                 ; 0000 0161 
                 ; 0000 0162 // Timer/Counter 2 initialization
                 ; 0000 0163 // Clock source: System Clock
                 ; 0000 0164 // Clock value: 8000,000 kHz
                 ; 0000 0165 // Mode: Phase correct PWM top=0xFF
                 ; 0000 0166 // OC2A output: Non-Inverted PWM
                 ; 0000 0167 // OC2B output: Inverted PWM
                 ; 0000 0168 // Timer Period: 0,06375 ms
                 ; 0000 0169 // Output Pulse(s):
                 ; 0000 016A // OC2A Period: 0,06375 ms Width: 0 us// OC2B Period: 0,06375 ms Width: 0,06375 ms
                 ; 0000 016B ASSR=(0<<EXCLK) | (0<<AS2);
000430 93e0 00b6 	STS  182,R30
                 ; 0000 016C TCCR2A=(1<<COM2A1) | (0<<COM2A0) | (1<<COM2B1) | (1<<COM2B0) | (0<<WGM21) | (1<<WGM20);
000432 ebe1      	LDI  R30,LOW(177)
000433 93e0 00b0 	STS  176,R30
                 ; 0000 016D TCCR2B=(0<<WGM22) | (0<<CS22) | (0<<CS21) | (1<<CS20);
000435 e0e1      	LDI  R30,LOW(1)
000436 93e0 00b1 	STS  177,R30
                 ; 0000 016E TCNT2=0x00;
000438 e0e0      	LDI  R30,LOW(0)
000439 93e0 00b2 	STS  178,R30
                 ; 0000 016F OCR2A=0x00;
00043b d0b7      	RCALL SUBOPT_0x19
                 ; 0000 0170 OCR2B=0xFF;
                 ; 0000 0171 
                 ; 0000 0172 // Timer/Counter 0 Interrupt(s) initialization
                 ; 0000 0173 TIMSK0=(0<<OCIE0B) | (0<<OCIE0A) | (1<<TOIE0);
00043c e0e1      	LDI  R30,LOW(1)
00043d 93e0 006e 	STS  110,R30
                 ; 0000 0174 
                 ; 0000 0175 // Timer/Counter 1 Interrupt(s) initialization
                 ; 0000 0176 TIMSK1=(0<<ICIE1) | (0<<OCIE1B) | (0<<OCIE1A) | (0<<TOIE1);
00043f e0e0      	LDI  R30,LOW(0)
000440 93e0 006f 	STS  111,R30
                 ; 0000 0177 
                 ; 0000 0178 // Timer/Counter 2 Interrupt(s) initialization
                 ; 0000 0179 TIMSK2=(0<<OCIE2B) | (0<<OCIE2A) | (0<<TOIE2);
000442 93e0 0070 	STS  112,R30
                 ; 0000 017A 
                 ; 0000 017B // External Interrupt(s) initialization
                 ; 0000 017C // INT0: Off
                 ; 0000 017D // INT1: Off
                 ; 0000 017E // Interrupt on any change on pins PCINT0-7: Off
                 ; 0000 017F // Interrupt on any change on pins PCINT8-14: Off
                 ; 0000 0180 // Interrupt on any change on pins PCINT16-23: Off
                 ; 0000 0181 EICRA=(0<<ISC11) | (0<<ISC10) | (0<<ISC01) | (0<<ISC00);
000444 93e0 0069 	STS  105,R30
                 ; 0000 0182 EIMSK=(0<<INT1) | (0<<INT0);
000446 bbed      	OUT  0x1D,R30
                 ; 0000 0183 PCICR=(0<<PCIE2) | (0<<PCIE1) | (0<<PCIE0);
000447 93e0 0068 	STS  104,R30
                 ; 0000 0184 
                 ; 0000 0185 // USART initialization
                 ; 0000 0186 // USART disabled
                 ; 0000 0187 UCSR0B=(0<<RXCIE0) | (0<<TXCIE0) | (0<<UDRIE0) | (0<<RXEN0) | (0<<TXEN0) | (0<<UCSZ02) | (0<<RXB80) | (0<<TXB80);
000449 93e0 00c1 	STS  193,R30
                 ; 0000 0188 
                 ; 0000 0189 // Analog Comparator initialization
                 ; 0000 018A // Analog Comparator: Off
                 ; 0000 018B // The Analog Comparator's positive input is
                 ; 0000 018C // connected to the AIN0 pin
                 ; 0000 018D // The Analog Comparator's negative input is
                 ; 0000 018E // connected to the AIN1 pin
                 ; 0000 018F ACSR=(1<<ACD) | (0<<ACBG) | (0<<ACO) | (0<<ACI) | (0<<ACIE) | (0<<ACIC) | (0<<ACIS1) | (0<<ACIS0);
00044b e8e0      	LDI  R30,LOW(128)
00044c bfe0      	OUT  0x30,R30
                 ; 0000 0190 // Digital input buffer on AIN0: On
                 ; 0000 0191 // Digital input buffer on AIN1: On
                 ; 0000 0192 DIDR1=(0<<AIN0D) | (0<<AIN1D);
00044d e0e0      	LDI  R30,LOW(0)
00044e 93e0 007f 	STS  127,R30
                 ; 0000 0193 
                 ; 0000 0194 
                 ; 0000 0195 // ADC initialization
                 ; 0000 0196 // ADC Clock frequency: 1000,000 kHz
                 ; 0000 0197 // ADC Voltage Reference: AVCC pin
                 ; 0000 0198 // ADC Auto Trigger Source: ADC Stopped
                 ; 0000 0199 // Digital input buffers on ADC0: On, ADC1: On, ADC2: On, ADC3: On
                 ; 0000 019A // ADC4: On, ADC5: On
                 ; 0000 019B DIDR0=(0<<ADC5D) | (0<<ADC4D) | (0<<ADC3D) | (0<<ADC2D) | (0<<ADC1D) | (0<<ADC0D);
000450 93e0 007e 	STS  126,R30
                 ; 0000 019C ADMUX=ADC_VREF_TYPE;
000452 e4e0      	LDI  R30,LOW(64)
000453 93e0 007c 	STS  124,R30
                 ; 0000 019D ADCSRA=(1<<ADEN) | (0<<ADSC) | (0<<ADATE) | (0<<ADIF) | (0<<ADIE) | (0<<ADPS2) | (1<<ADPS1) | (1<<ADPS0);
000455 e8e3      	LDI  R30,LOW(131)
000456 93e0 007a 	STS  122,R30
                 ; 0000 019E ADCSRB=(0<<ADTS2) | (0<<ADTS1) | (0<<ADTS0);
000458 e0e0      	LDI  R30,LOW(0)
000459 93e0 007b 	STS  123,R30
                 ; 0000 019F 
                 ; 0000 01A0 // SPI initialization
                 ; 0000 01A1 // SPI disabled
                 ; 0000 01A2 SPCR=(0<<SPIE) | (0<<SPE) | (0<<DORD) | (0<<MSTR) | (0<<CPOL) | (0<<CPHA) | (0<<SPR1) | (0<<SPR0);
00045b bdec      	OUT  0x2C,R30
                 ; 0000 01A3 
                 ; 0000 01A4 // TWI initialization
                 ; 0000 01A5 // TWI disabled
                 ; 0000 01A6 TWCR=(0<<TWEA) | (0<<TWSTA) | (0<<TWSTO) | (0<<TWEN) | (0<<TWIE);
00045c 93e0 00bc 	STS  188,R30
                 ; 0000 01A7 
                 ; 0000 01A8 // Global enable interrupts
                 ; 0000 01A9 TCNT0=0;    //Синхронізація таймерів
00045e bde6      	OUT  0x26,R30
                 ; 0000 01AA TCNT1L=2;   //Синхронізація таймерів
00045f e0e2      	LDI  R30,LOW(2)
000460 93e0 0084 	STS  132,R30
                 ; 0000 01AB TCNT2=5;    //Синхронізація таймерів
000462 e0e5      	LDI  R30,LOW(5)
000463 93e0 00b2 	STS  178,R30
                 ; 0000 01AC #asm("sei")
000465 9478      	sei
                 ; 0000 01AD while (1)
                 _0x45:
                 ; 0000 01AE       {
                 ; 0000 01AF         check_error(); // Перевірка на помилки (Виконується весь вільний процесорний час)
000466 def3      	RCALL _check_error
                 ; 0000 01B0 
                 ; 0000 01B1 
                 ; 0000 01B2       }
000467 cffe      	RJMP _0x45
                 ; 0000 01B3 }
                 _0x48:
000468 cfff      	RJMP _0x48
                 ; .FEND
                 
                 	.DSEG
                 _mode:
000180           	.BYTE 0x2
                 _sinpos:
000182           	.BYTE 0x2
                 _direct:
000184           	.BYTE 0x2
                 _amplitude:
000186           	.BYTE 0x4
                 _sinseg_period:
00018a           	.BYTE 0x2
                 _sinseg:
00018c           	.BYTE 0x2
                 _sys_timer_cnt:
00018e           	.BYTE 0x2
                 _accel_cnt:
000190           	.BYTE 0x2
                 _cur_freq:
000192           	.BYTE 0x2
                 _freq:
000194           	.BYTE 0x2
                 _error_led_cnt:
000196           	.BYTE 0x2
                 _error_led_period:
000198           	.BYTE 0x2
                 _error:
00019a           	.BYTE 0x2
                 _overload_state:
00019c           	.BYTE 0x2
                 _overvoltage_state:
00019e           	.BYTE 0x2
                 _crytycal_voltage:
0001a0           	.BYTE 0x2
                 _brake_cnt:
0001a2           	.BYTE 0x2
                 
                 	.ESEG
                 _driver_temp_state:
000000           	.BYTE 0x2
                 
                 	.CSEG
                 ;OPTIMIZER ADDED SUBROUTINE, CALLED 2 TIMES, CODE SIZE REDUCTION:1 WORDS
                 SUBOPT_0x0:
                +
000469 85ac     +LDD R26 , Y + 12
00046a 85bd     +LDD R27 , Y + 12 + 1
00046b 858e     +LDD R24 , Y + 12 + 2
00046c 859f     +LDD R25 , Y + 12 + 3
                 	__GETD2S 12
00046d 9508      	RET
                 
                 ;OPTIMIZER ADDED SUBROUTINE, CALLED 2 TIMES, CODE SIZE REDUCTION:1 WORDS
                 SUBOPT_0x1:
                +
00046e 81ac     +LDD R26 , Y + 4
00046f 81bd     +LDD R27 , Y + 4 + 1
000470 818e     +LDD R24 , Y + 4 + 2
000471 819f     +LDD R25 , Y + 4 + 3
                 	__GETD2S 4
000472 9508      	RET
                 
                 ;OPTIMIZER ADDED SUBROUTINE, CALLED 5 TIMES, CODE SIZE REDUCTION:14 WORDS
                 SUBOPT_0x2:
000473 91ed      	LD   R30,X+
000474 91fd      	LD   R31,X+
000475 9631      	ADIW R30,1
000476 93fe      	ST   -X,R31
000477 93ee      	ST   -X,R30
000478 9508      	RET
                 
                 ;OPTIMIZER ADDED SUBROUTINE, CALLED 2 TIMES, CODE SIZE REDUCTION:6 WORDS
                 SUBOPT_0x3:
000479 91a0 0186 	LDS  R26,_amplitude
00047b 91b0 0187 	LDS  R27,_amplitude+1
00047d 9180 0188 	LDS  R24,_amplitude+2
00047f 9190 0189 	LDS  R25,_amplitude+3
000481 d2d1      	RCALL __CPD02
000482 9508      	RET
                 
                 ;OPTIMIZER ADDED SUBROUTINE, CALLED 5 TIMES, CODE SIZE REDUCTION:10 WORDS
                 SUBOPT_0x4:
000483 91a0 0180 	LDS  R26,_mode
000485 91b0 0181 	LDS  R27,_mode+1
000487 9508      	RET
                 
                 ;OPTIMIZER ADDED SUBROUTINE, CALLED 3 TIMES, CODE SIZE REDUCTION:12 WORDS
                 SUBOPT_0x5:
000488 91e0 0194 	LDS  R30,_freq
00048a 91f0 0195 	LDS  R31,_freq+1
00048c 91a0 0192 	LDS  R26,_cur_freq
00048e 91b0 0193 	LDS  R27,_cur_freq+1
000490 9508      	RET
                 
                 ;OPTIMIZER ADDED SUBROUTINE, CALLED 2 TIMES, CODE SIZE REDUCTION:1 WORDS
                 SUBOPT_0x6:
000491 e9a2      	LDI  R26,LOW(_cur_freq)
000492 e0b1      	LDI  R27,HIGH(_cur_freq)
000493 91ed      	LD   R30,X+
000494 91fd      	LD   R31,X+
000495 9508      	RET
                 
                 ;OPTIMIZER ADDED SUBROUTINE, CALLED 2 TIMES, CODE SIZE REDUCTION:3 WORDS
                 SUBOPT_0x7:
000496 d275      	RCALL __PUTPARD1
                +
000497 e0e0     +LDI R30 , LOW ( 0x0 )
000498 e0f0     +LDI R31 , HIGH ( 0x0 )
000499 e060     +LDI R22 , BYTE3 ( 0x0 )
00049a e070     +LDI R23 , BYTE4 ( 0x0 )
                 	__GETD1N 0x0
00049b d270      	RCALL __PUTPARD1
00049c 9508      	RET
                 
                 ;OPTIMIZER ADDED SUBROUTINE, CALLED 2 TIMES, CODE SIZE REDUCTION:1 WORDS
                 SUBOPT_0x8:
00049d 93e0 0194 	STS  _freq,R30
00049f 93f0 0195 	STS  _freq+1,R31
0004a1 9508      	RET
                 
                 ;OPTIMIZER ADDED SUBROUTINE, CALLED 9 TIMES, CODE SIZE REDUCTION:6 WORDS
                 SUBOPT_0x9:
0004a2 e0e1      	LDI  R30,LOW(1)
0004a3 e0f0      	LDI  R31,HIGH(1)
0004a4 9508      	RET
                 
                 ;OPTIMIZER ADDED SUBROUTINE, CALLED 2 TIMES, CODE SIZE REDUCTION:1 WORDS
                 SUBOPT_0xA:
0004a5 91a0 019a 	LDS  R26,_error
0004a7 91b0 019b 	LDS  R27,_error+1
0004a9 9508      	RET
                 
                 ;OPTIMIZER ADDED SUBROUTINE, CALLED 5 TIMES, CODE SIZE REDUCTION:14 WORDS
                 SUBOPT_0xB:
0004aa e0e0      	LDI  R30,LOW(0)
0004ab 93e0 0180 	STS  _mode,R30
0004ad 93e0 0181 	STS  _mode+1,R30
0004af 9508      	RET
                 
                 ;OPTIMIZER ADDED SUBROUTINE, CALLED 2 TIMES, CODE SIZE REDUCTION:2 WORDS
                 SUBOPT_0xC:
0004b0 91e0 0180 	LDS  R30,_mode
0004b2 91f0 0181 	LDS  R31,_mode+1
0004b4 9730      	SBIW R30,0
0004b5 9508      	RET
                 
                 ;OPTIMIZER ADDED SUBROUTINE, CALLED 2 TIMES, CODE SIZE REDUCTION:2 WORDS
                 SUBOPT_0xD:
0004b6 dfeb      	RCALL SUBOPT_0x9
0004b7 93e0 0180 	STS  _mode,R30
0004b9 93f0 0181 	STS  _mode+1,R31
0004bb 9508      	RET
                 
                 ;OPTIMIZER ADDED SUBROUTINE, CALLED 5 TIMES, CODE SIZE REDUCTION:2 WORDS
                 SUBOPT_0xE:
0004bc 81ee      	LDD  R30,Y+6
0004bd 81ff      	LDD  R31,Y+6+1
0004be 9508      	RET
                 
                 ;OPTIMIZER ADDED SUBROUTINE, CALLED 5 TIMES, CODE SIZE REDUCTION:54 WORDS
                 SUBOPT_0xF:
0004bf 91a4      	LPM  R26,Z
0004c0 e0b0      	LDI  R27,0
0004c1 91e0 0186 	LDS  R30,_amplitude
0004c3 91f0 0187 	LDS  R31,_amplitude+1
0004c5 9160 0188 	LDS  R22,_amplitude+2
0004c7 9170 0189 	LDS  R23,_amplitude+3
0004c9 d199      	RCALL __CWD2
0004ca d24d      	RCALL __CDF2
0004cb d0c9      	RCALL __MULF12
0004cc d061      	RCALL __CFD1U
0004cd 9508      	RET
                 
                 ;OPTIMIZER ADDED SUBROUTINE, CALLED 2 TIMES, CODE SIZE REDUCTION:1 WORDS
                 SUBOPT_0x10:
0004ce dfed      	RCALL SUBOPT_0xE
                +
0004cf 5ceb     +SUBI R30 , LOW ( - 2 * _sineTable - ( 1 ) )
0004d0 4fff     +SBCI R31 , HIGH ( - 2 * _sineTable - ( 1 ) )
                 	__ADDW1FN _sineTable,1
0004d1 cfed      	RJMP SUBOPT_0xF
                 
                 ;OPTIMIZER ADDED SUBROUTINE, CALLED 2 TIMES, CODE SIZE REDUCTION:1 WORDS
                 SUBOPT_0x11:
0004d2 dfe9      	RCALL SUBOPT_0xE
                +
0004d3 5cea     +SUBI R30 , LOW ( - 2 * _sineTable - ( 2 ) )
0004d4 4fff     +SBCI R31 , HIGH ( - 2 * _sineTable - ( 2 ) )
                 	__ADDW1FN _sineTable,2
0004d5 cfe9      	RJMP SUBOPT_0xF
                 
                 ;OPTIMIZER ADDED SUBROUTINE, CALLED 6 TIMES, CODE SIZE REDUCTION:3 WORDS
                 SUBOPT_0x12:
0004d6 81aa      	LDD  R26,Y+2
0004d7 81bb      	LDD  R27,Y+2+1
0004d8 9508      	RET
                 
                 ;OPTIMIZER ADDED SUBROUTINE, CALLED 4 TIMES, CODE SIZE REDUCTION:1 WORDS
                 SUBOPT_0x13:
0004d9 81ec      	LDD  R30,Y+4
0004da 81fd      	LDD  R31,Y+4+1
0004db 9508      	RET
                 
                 ;OPTIMIZER ADDED SUBROUTINE, CALLED 2 TIMES, CODE SIZE REDUCTION:1 WORDS
                 SUBOPT_0x14:
0004dc 93e0 018a 	STS  _sinseg_period,R30
0004de 93f0 018b 	STS  _sinseg_period+1,R31
0004e0 9508      	RET
                 
                 ;OPTIMIZER ADDED SUBROUTINE, CALLED 2 TIMES, CODE SIZE REDUCTION:1 WORDS
                 SUBOPT_0x15:
0004e1 d225      	RCALL __PUTD1S0
0004e2 9508      	RET
                 
                 ;OPTIMIZER ADDED SUBROUTINE, CALLED 2 TIMES, CODE SIZE REDUCTION:5 WORDS
                 SUBOPT_0x16:
0004e3 d21e      	RCALL __GETD2S0
                +
0004e4 e0e0     +LDI R30 , LOW ( 0x42C80000 )
0004e5 e0f0     +LDI R31 , HIGH ( 0x42C80000 )
0004e6 ec68     +LDI R22 , BYTE3 ( 0x42C80000 )
0004e7 e472     +LDI R23 , BYTE4 ( 0x42C80000 )
                 	__GETD1N 0x42C80000
0004e8 9508      	RET
                 
                 ;OPTIMIZER ADDED SUBROUTINE, CALLED 2 TIMES, CODE SIZE REDUCTION:1 WORDS
                 SUBOPT_0x17:
0004e9 e0e0      	LDI  R30,LOW(0)
0004ea bde7      	OUT  0x27,R30
0004eb efef      	LDI  R30,LOW(255)
0004ec bde8      	OUT  0x28,R30
0004ed 9508      	RET
                 
                 ;OPTIMIZER ADDED SUBROUTINE, CALLED 2 TIMES, CODE SIZE REDUCTION:1 WORDS
                 SUBOPT_0x18:
0004ee efef      	LDI  R30,LOW(255)
0004ef 93e0 008a 	STS  138,R30
0004f1 e0e0      	LDI  R30,LOW(0)
0004f2 9508      	RET
                 
                 ;OPTIMIZER ADDED SUBROUTINE, CALLED 2 TIMES, CODE SIZE REDUCTION:2 WORDS
                 SUBOPT_0x19:
0004f3 93e0 00b3 	STS  179,R30
0004f5 efef      	LDI  R30,LOW(255)
0004f6 93e0 00b4 	STS  180,R30
0004f8 9508      	RET
                 
                 ;OPTIMIZER ADDED SUBROUTINE, CALLED 3 TIMES, CODE SIZE REDUCTION:4 WORDS
                 SUBOPT_0x1A:
0004f9 93e0 0198 	STS  _error_led_period,R30
0004fb 93f0 0199 	STS  _error_led_period+1,R31
0004fd 9508      	RET
                 
                 ;OPTIMIZER ADDED SUBROUTINE, CALLED 4 TIMES, CODE SIZE REDUCTION:1 WORDS
                 SUBOPT_0x1B:
0004fe 83ec      	STD  Y+4,R30
0004ff 83fd      	STD  Y+4+1,R31
000500 9508      	RET
                 
                 
                 	.CSEG
                 __ROUND_REPACK:
000501 2355      	TST  R21
000502 f442      	BRPL __REPACK
000503 3850      	CPI  R21,0x80
000504 f411      	BRNE __ROUND_REPACK0
000505 ffe0      	SBRS R30,0
000506 c004      	RJMP __REPACK
                 __ROUND_REPACK0:
000507 9631      	ADIW R30,1
000508 1f69      	ADC  R22,R25
000509 1f79      	ADC  R23,R25
00050a f06b      	BRVS __REPACK1
                 
                 __REPACK:
00050b e850      	LDI  R21,0x80
00050c 2757      	EOR  R21,R23
00050d f411      	BRNE __REPACK0
00050e 935f      	PUSH R21
00050f c073      	RJMP __ZERORES
                 __REPACK0:
000510 3f5f      	CPI  R21,0xFF
000511 f031      	BREQ __REPACK1
000512 0f66      	LSL  R22
000513 0c00      	LSL  R0
000514 9557      	ROR  R21
000515 9567      	ROR  R22
000516 2f75      	MOV  R23,R21
000517 9508      	RET
                 __REPACK1:
000518 935f      	PUSH R21
000519 2000      	TST  R0
00051a f00a      	BRMI __REPACK2
00051b c073      	RJMP __MAXRES
                 __REPACK2:
00051c c06c      	RJMP __MINRES
                 
                 __UNPACK:
00051d e850      	LDI  R21,0x80
00051e 2e19      	MOV  R1,R25
00051f 2215      	AND  R1,R21
000520 0f88      	LSL  R24
000521 1f99      	ROL  R25
000522 2795      	EOR  R25,R21
000523 0f55      	LSL  R21
000524 9587      	ROR  R24
                 
                 __UNPACK1:
000525 e850      	LDI  R21,0x80
000526 2e07      	MOV  R0,R23
000527 2205      	AND  R0,R21
000528 0f66      	LSL  R22
000529 1f77      	ROL  R23
00052a 2775      	EOR  R23,R21
00052b 0f55      	LSL  R21
00052c 9567      	ROR  R22
00052d 9508      	RET
                 
                 __CFD1U:
00052e 9468      	SET
00052f c001      	RJMP __CFD1U0
                 __CFD1:
000530 94e8      	CLT
                 __CFD1U0:
000531 935f      	PUSH R21
000532 dff2      	RCALL __UNPACK1
000533 3870      	CPI  R23,0x80
000534 f018      	BRLO __CFD10
000535 3f7f      	CPI  R23,0xFF
000536 f408      	BRCC __CFD10
000537 c04b      	RJMP __ZERORES
                 __CFD10:
000538 e156      	LDI  R21,22
000539 1b57      	SUB  R21,R23
00053a f4aa      	BRPL __CFD11
00053b 9551      	NEG  R21
00053c 3058      	CPI  R21,8
00053d f40e      	BRTC __CFD19
00053e 3059      	CPI  R21,9
                 __CFD19:
00053f f030      	BRLO __CFD17
000540 efef      	SER  R30
000541 efff      	SER  R31
000542 ef6f      	SER  R22
000543 e77f      	LDI  R23,0x7F
000544 f977      	BLD  R23,7
000545 c01a      	RJMP __CFD15
                 __CFD17:
000546 2777      	CLR  R23
000547 2355      	TST  R21
000548 f0b9      	BREQ __CFD15
                 __CFD18:
000549 0fee      	LSL  R30
00054a 1fff      	ROL  R31
00054b 1f66      	ROL  R22
00054c 1f77      	ROL  R23
00054d 955a      	DEC  R21
00054e f7d1      	BRNE __CFD18
00054f c010      	RJMP __CFD15
                 __CFD11:
000550 2777      	CLR  R23
                 __CFD12:
000551 3058      	CPI  R21,8
000552 f028      	BRLO __CFD13
000553 2fef      	MOV  R30,R31
000554 2ff6      	MOV  R31,R22
000555 2f67      	MOV  R22,R23
000556 5058      	SUBI R21,8
000557 cff9      	RJMP __CFD12
                 __CFD13:
000558 2355      	TST  R21
000559 f031      	BREQ __CFD15
                 __CFD14:
00055a 9576      	LSR  R23
00055b 9567      	ROR  R22
00055c 95f7      	ROR  R31
00055d 95e7      	ROR  R30
00055e 955a      	DEC  R21
00055f f7d1      	BRNE __CFD14
                 __CFD15:
000560 2000      	TST  R0
000561 f40a      	BRPL __CFD16
000562 d0f3      	RCALL __ANEGD1
                 __CFD16:
000563 915f      	POP  R21
000564 9508      	RET
                 
                 __CDF1U:
000565 9468      	SET
000566 c001      	RJMP __CDF1U0
                 __CDF1:
000567 94e8      	CLT
                 __CDF1U0:
000568 9730      	SBIW R30,0
000569 4060      	SBCI R22,0
00056a 4070      	SBCI R23,0
00056b f0b1      	BREQ __CDF10
00056c 2400      	CLR  R0
00056d f026      	BRTS __CDF11
00056e 2377      	TST  R23
00056f f412      	BRPL __CDF11
000570 9400      	COM  R0
000571 d0e4      	RCALL __ANEGD1
                 __CDF11:
000572 2e17      	MOV  R1,R23
000573 e17e      	LDI  R23,30
000574 2011      	TST  R1
                 __CDF12:
000575 f032      	BRMI __CDF13
000576 957a      	DEC  R23
000577 0fee      	LSL  R30
000578 1fff      	ROL  R31
000579 1f66      	ROL  R22
00057a 1c11      	ROL  R1
00057b cff9      	RJMP __CDF12
                 __CDF13:
00057c 2fef      	MOV  R30,R31
00057d 2ff6      	MOV  R31,R22
00057e 2d61      	MOV  R22,R1
00057f 935f      	PUSH R21
000580 df8a      	RCALL __REPACK
000581 915f      	POP  R21
                 __CDF10:
000582 9508      	RET
                 
                 __ZERORES:
000583 27ee      	CLR  R30
000584 27ff      	CLR  R31
000585 2766      	CLR  R22
000586 2777      	CLR  R23
000587 915f      	POP  R21
000588 9508      	RET
                 
                 __MINRES:
000589 efef      	SER  R30
00058a efff      	SER  R31
00058b e76f      	LDI  R22,0x7F
00058c ef7f      	SER  R23
00058d 915f      	POP  R21
00058e 9508      	RET
                 
                 __MAXRES:
00058f efef      	SER  R30
000590 efff      	SER  R31
000591 e76f      	LDI  R22,0x7F
000592 e77f      	LDI  R23,0x7F
000593 915f      	POP  R21
000594 9508      	RET
                 
                 __MULF12:
000595 935f      	PUSH R21
000596 df86      	RCALL __UNPACK
000597 3870      	CPI  R23,0x80
000598 f351      	BREQ __ZERORES
000599 3890      	CPI  R25,0x80
00059a f341      	BREQ __ZERORES
00059b 2401      	EOR  R0,R1
00059c 9408      	SEC
00059d 1f79      	ADC  R23,R25
00059e f423      	BRVC __MULF124
00059f f31c      	BRLT __ZERORES
                 __MULF125:
0005a0 2000      	TST  R0
0005a1 f33a      	BRMI __MINRES
0005a2 cfec      	RJMP __MAXRES
                 __MULF124:
0005a3 920f      	PUSH R0
0005a4 931f      	PUSH R17
0005a5 932f      	PUSH R18
0005a6 933f      	PUSH R19
0005a7 934f      	PUSH R20
0005a8 2711      	CLR  R17
0005a9 2722      	CLR  R18
0005aa 2799      	CLR  R25
0005ab 9f68      	MUL  R22,R24
0005ac 01a0      	MOVW R20,R0
0005ad 9f8f      	MUL  R24,R31
0005ae 2d30      	MOV  R19,R0
0005af 0d41      	ADD  R20,R1
0005b0 1f59      	ADC  R21,R25
0005b1 9f6b      	MUL  R22,R27
0005b2 0d30      	ADD  R19,R0
0005b3 1d41      	ADC  R20,R1
0005b4 1f59      	ADC  R21,R25
0005b5 9f8e      	MUL  R24,R30
0005b6 d027      	RCALL __MULF126
0005b7 9fbf      	MUL  R27,R31
0005b8 d025      	RCALL __MULF126
0005b9 9f6a      	MUL  R22,R26
0005ba d023      	RCALL __MULF126
0005bb 9fbe      	MUL  R27,R30
0005bc d01d      	RCALL __MULF127
0005bd 9faf      	MUL  R26,R31
0005be d01b      	RCALL __MULF127
0005bf 9fae      	MUL  R26,R30
0005c0 0d11      	ADD  R17,R1
0005c1 1f29      	ADC  R18,R25
0005c2 1f39      	ADC  R19,R25
0005c3 1f49      	ADC  R20,R25
0005c4 1f59      	ADC  R21,R25
0005c5 2fe3      	MOV  R30,R19
0005c6 2ff4      	MOV  R31,R20
0005c7 2f65      	MOV  R22,R21
0005c8 2f52      	MOV  R21,R18
0005c9 914f      	POP  R20
0005ca 913f      	POP  R19
0005cb 912f      	POP  R18
0005cc 911f      	POP  R17
0005cd 900f      	POP  R0
0005ce 2366      	TST  R22
0005cf f02a      	BRMI __MULF122
0005d0 0f55      	LSL  R21
0005d1 1fee      	ROL  R30
0005d2 1fff      	ROL  R31
0005d3 1f66      	ROL  R22
0005d4 c002      	RJMP __MULF123
                 __MULF122:
0005d5 9573      	INC  R23
0005d6 f24b      	BRVS __MULF125
                 __MULF123:
0005d7 df29      	RCALL __ROUND_REPACK
0005d8 915f      	POP  R21
0005d9 9508      	RET
                 
                 __MULF127:
0005da 0d10      	ADD  R17,R0
0005db 1d21      	ADC  R18,R1
0005dc 1f39      	ADC  R19,R25
0005dd c002      	RJMP __MULF128
                 __MULF126:
0005de 0d20      	ADD  R18,R0
0005df 1d31      	ADC  R19,R1
                 __MULF128:
0005e0 1f49      	ADC  R20,R25
0005e1 1f59      	ADC  R21,R25
0005e2 9508      	RET
                 
                 __DIVF21:
0005e3 935f      	PUSH R21
0005e4 df38      	RCALL __UNPACK
0005e5 3870      	CPI  R23,0x80
0005e6 f421      	BRNE __DIVF210
0005e7 2011      	TST  R1
                 __DIVF211:
0005e8 f40a      	BRPL __DIVF219
0005e9 cf9f      	RJMP __MINRES
                 __DIVF219:
0005ea cfa4      	RJMP __MAXRES
                 __DIVF210:
0005eb 3890      	CPI  R25,0x80
0005ec f409      	BRNE __DIVF218
                 __DIVF217:
0005ed cf95      	RJMP __ZERORES
                 __DIVF218:
0005ee 2401      	EOR  R0,R1
0005ef 9408      	SEC
0005f0 0b97      	SBC  R25,R23
0005f1 f41b      	BRVC __DIVF216
0005f2 f3d4      	BRLT __DIVF217
0005f3 2000      	TST  R0
0005f4 cff3      	RJMP __DIVF211
                 __DIVF216:
0005f5 2f79      	MOV  R23,R25
0005f6 931f      	PUSH R17
0005f7 932f      	PUSH R18
0005f8 933f      	PUSH R19
0005f9 934f      	PUSH R20
0005fa 2411      	CLR  R1
0005fb 2711      	CLR  R17
0005fc 2722      	CLR  R18
0005fd 2733      	CLR  R19
0005fe 2744      	CLR  R20
0005ff 2755      	CLR  R21
000600 e290      	LDI  R25,32
                 __DIVF212:
000601 17ae      	CP   R26,R30
000602 07bf      	CPC  R27,R31
000603 0786      	CPC  R24,R22
000604 0741      	CPC  R20,R17
000605 f030      	BRLO __DIVF213
000606 1bae      	SUB  R26,R30
000607 0bbf      	SBC  R27,R31
000608 0b86      	SBC  R24,R22
000609 0b41      	SBC  R20,R17
00060a 9408      	SEC
00060b c001      	RJMP __DIVF214
                 __DIVF213:
00060c 9488      	CLC
                 __DIVF214:
00060d 1f55      	ROL  R21
00060e 1f22      	ROL  R18
00060f 1f33      	ROL  R19
000610 1c11      	ROL  R1
000611 1faa      	ROL  R26
000612 1fbb      	ROL  R27
000613 1f88      	ROL  R24
000614 1f44      	ROL  R20
000615 959a      	DEC  R25
000616 f751      	BRNE __DIVF212
000617 01f9      	MOVW R30,R18
000618 2d61      	MOV  R22,R1
000619 914f      	POP  R20
00061a 913f      	POP  R19
00061b 912f      	POP  R18
00061c 911f      	POP  R17
00061d 2366      	TST  R22
00061e f032      	BRMI __DIVF215
00061f 0f55      	LSL  R21
000620 1fee      	ROL  R30
000621 1fff      	ROL  R31
000622 1f66      	ROL  R22
000623 957a      	DEC  R23
000624 f243      	BRVS __DIVF217
                 __DIVF215:
000625 dedb      	RCALL __ROUND_REPACK
000626 915f      	POP  R21
000627 9508      	RET
                 
                 __CMPF12:
000628 2399      	TST  R25
000629 f09a      	BRMI __CMPF120
00062a 2377      	TST  R23
00062b f042      	BRMI __CMPF121
00062c 1797      	CP   R25,R23
00062d f048      	BRLO __CMPF122
00062e f429      	BRNE __CMPF121
00062f 17ae      	CP   R26,R30
000630 07bf      	CPC  R27,R31
000631 0786      	CPC  R24,R22
000632 f020      	BRLO __CMPF122
000633 f031      	BREQ __CMPF123
                 __CMPF121:
000634 9498      	CLZ
000635 9488      	CLC
000636 9508      	RET
                 __CMPF122:
000637 9498      	CLZ
000638 9408      	SEC
000639 9508      	RET
                 __CMPF123:
00063a 9418      	SEZ
00063b 9488      	CLC
00063c 9508      	RET
                 __CMPF120:
00063d 2377      	TST  R23
00063e f7c2      	BRPL __CMPF122
00063f 1797      	CP   R25,R23
000640 f398      	BRLO __CMPF121
000641 f7a9      	BRNE __CMPF122
000642 17ea      	CP   R30,R26
000643 07fb      	CPC  R31,R27
000644 0768      	CPC  R22,R24
000645 f388      	BRLO __CMPF122
000646 f399      	BREQ __CMPF123
000647 cfec      	RJMP __CMPF121
                 
                 __ADDD12:
000648 0fea      	ADD  R30,R26
000649 1ffb      	ADC  R31,R27
00064a 1f68      	ADC  R22,R24
00064b 1f79      	ADC  R23,R25
00064c 9508      	RET
                 
                 __SUBD12:
00064d 1bea      	SUB  R30,R26
00064e 0bfb      	SBC  R31,R27
00064f 0b68      	SBC  R22,R24
000650 0b79      	SBC  R23,R25
000651 9508      	RET
                 
                 __ANEGW1:
000652 95f1      	NEG  R31
000653 95e1      	NEG  R30
000654 40f0      	SBCI R31,0
000655 9508      	RET
                 
                 __ANEGD1:
000656 95f0      	COM  R31
000657 9560      	COM  R22
000658 9570      	COM  R23
000659 95e1      	NEG  R30
00065a 4fff      	SBCI R31,-1
00065b 4f6f      	SBCI R22,-1
00065c 4f7f      	SBCI R23,-1
00065d 9508      	RET
                 
                 __CWD1:
00065e 2f6f      	MOV  R22,R31
00065f 0f66      	ADD  R22,R22
000660 0b66      	SBC  R22,R22
000661 2f76      	MOV  R23,R22
000662 9508      	RET
                 
                 __CWD2:
000663 2f8b      	MOV  R24,R27
000664 0f88      	ADD  R24,R24
000665 0b88      	SBC  R24,R24
000666 2f98      	MOV  R25,R24
000667 9508      	RET
                 
                 __MULW12U:
000668 9ffa      	MUL  R31,R26
000669 2df0      	MOV  R31,R0
00066a 9feb      	MUL  R30,R27
00066b 0df0      	ADD  R31,R0
00066c 9fea      	MUL  R30,R26
00066d 2de0      	MOV  R30,R0
00066e 0df1      	ADD  R31,R1
00066f 9508      	RET
                 
                 __MULD12U:
000670 9f7a      	MUL  R23,R26
000671 2d70      	MOV  R23,R0
000672 9f6b      	MUL  R22,R27
000673 0d70      	ADD  R23,R0
000674 9ff8      	MUL  R31,R24
000675 0d70      	ADD  R23,R0
000676 9fe9      	MUL  R30,R25
000677 0d70      	ADD  R23,R0
000678 9f6a      	MUL  R22,R26
000679 2d60      	MOV  R22,R0
00067a 0d71      	ADD  R23,R1
00067b 9ffb      	MUL  R31,R27
00067c 0d60      	ADD  R22,R0
00067d 1d71      	ADC  R23,R1
00067e 9fe8      	MUL  R30,R24
00067f 0d60      	ADD  R22,R0
000680 1d71      	ADC  R23,R1
000681 2788      	CLR  R24
000682 9ffa      	MUL  R31,R26
000683 2df0      	MOV  R31,R0
000684 0d61      	ADD  R22,R1
000685 1f78      	ADC  R23,R24
000686 9feb      	MUL  R30,R27
000687 0df0      	ADD  R31,R0
000688 1d61      	ADC  R22,R1
000689 1f78      	ADC  R23,R24
00068a 9fea      	MUL  R30,R26
00068b 2de0      	MOV  R30,R0
00068c 0df1      	ADD  R31,R1
00068d 1f68      	ADC  R22,R24
00068e 1f78      	ADC  R23,R24
00068f 9508      	RET
                 
                 __MULW12:
000690 d04b      	RCALL __CHKSIGNW
000691 dfd6      	RCALL __MULW12U
000692 f40e      	BRTC __MULW121
000693 dfbe      	RCALL __ANEGW1
                 __MULW121:
000694 9508      	RET
                 
                 __MULD12:
000695 d054      	RCALL __CHKSIGND
000696 dfd9      	RCALL __MULD12U
000697 f40e      	BRTC __MULD121
000698 dfbd      	RCALL __ANEGD1
                 __MULD121:
000699 9508      	RET
                 
                 __DIVW21U:
00069a 2400      	CLR  R0
00069b 2411      	CLR  R1
00069c e190      	LDI  R25,16
                 __DIVW21U1:
00069d 0faa      	LSL  R26
00069e 1fbb      	ROL  R27
00069f 1c00      	ROL  R0
0006a0 1c11      	ROL  R1
0006a1 1a0e      	SUB  R0,R30
0006a2 0a1f      	SBC  R1,R31
0006a3 f418      	BRCC __DIVW21U2
0006a4 0e0e      	ADD  R0,R30
0006a5 1e1f      	ADC  R1,R31
0006a6 c001      	RJMP __DIVW21U3
                 __DIVW21U2:
0006a7 60a1      	SBR  R26,1
                 __DIVW21U3:
0006a8 959a      	DEC  R25
0006a9 f799      	BRNE __DIVW21U1
0006aa 01fd      	MOVW R30,R26
0006ab 01d0      	MOVW R26,R0
0006ac 9508      	RET
                 
                 __DIVW21:
0006ad d02e      	RCALL __CHKSIGNW
0006ae dfeb      	RCALL __DIVW21U
0006af f40e      	BRTC __DIVW211
0006b0 dfa1      	RCALL __ANEGW1
                 __DIVW211:
0006b1 9508      	RET
                 
                 __DIVD21U:
0006b2 933f      	PUSH R19
0006b3 934f      	PUSH R20
0006b4 935f      	PUSH R21
0006b5 2400      	CLR  R0
0006b6 2411      	CLR  R1
0006b7 2744      	CLR  R20
0006b8 2755      	CLR  R21
0006b9 e230      	LDI  R19,32
                 __DIVD21U1:
0006ba 0faa      	LSL  R26
0006bb 1fbb      	ROL  R27
0006bc 1f88      	ROL  R24
0006bd 1f99      	ROL  R25
0006be 1c00      	ROL  R0
0006bf 1c11      	ROL  R1
0006c0 1f44      	ROL  R20
0006c1 1f55      	ROL  R21
0006c2 1a0e      	SUB  R0,R30
0006c3 0a1f      	SBC  R1,R31
0006c4 0b46      	SBC  R20,R22
0006c5 0b57      	SBC  R21,R23
0006c6 f428      	BRCC __DIVD21U2
0006c7 0e0e      	ADD  R0,R30
0006c8 1e1f      	ADC  R1,R31
0006c9 1f46      	ADC  R20,R22
0006ca 1f57      	ADC  R21,R23
0006cb c001      	RJMP __DIVD21U3
                 __DIVD21U2:
0006cc 60a1      	SBR  R26,1
                 __DIVD21U3:
0006cd 953a      	DEC  R19
0006ce f759      	BRNE __DIVD21U1
0006cf 01fd      	MOVW R30,R26
0006d0 01bc      	MOVW R22,R24
0006d1 01d0      	MOVW R26,R0
0006d2 01ca      	MOVW R24,R20
0006d3 915f      	POP  R21
0006d4 914f      	POP  R20
0006d5 913f      	POP  R19
0006d6 9508      	RET
                 
                 __DIVD21:
0006d7 d012      	RCALL __CHKSIGND
0006d8 dfd9      	RCALL __DIVD21U
0006d9 f40e      	BRTC __DIVD211
0006da df7b      	RCALL __ANEGD1
                 __DIVD211:
0006db 9508      	RET
                 
                 __CHKSIGNW:
0006dc 94e8      	CLT
0006dd fff7      	SBRS R31,7
0006de c002      	RJMP __CHKSW1
0006df df72      	RCALL __ANEGW1
0006e0 9468      	SET
                 __CHKSW1:
0006e1 ffb7      	SBRS R27,7
0006e2 c006      	RJMP __CHKSW2
0006e3 95a0      	COM  R26
0006e4 95b0      	COM  R27
0006e5 9611      	ADIW R26,1
0006e6 f800      	BLD  R0,0
0006e7 9403      	INC  R0
0006e8 fa00      	BST  R0,0
                 __CHKSW2:
0006e9 9508      	RET
                 
                 __CHKSIGND:
0006ea 94e8      	CLT
0006eb ff77      	SBRS R23,7
0006ec c002      	RJMP __CHKSD1
0006ed df68      	RCALL __ANEGD1
0006ee 9468      	SET
                 __CHKSD1:
0006ef ff97      	SBRS R25,7
0006f0 c00b      	RJMP __CHKSD2
0006f1 2400      	CLR  R0
0006f2 95a0      	COM  R26
0006f3 95b0      	COM  R27
0006f4 9580      	COM  R24
0006f5 9590      	COM  R25
0006f6 9611      	ADIW R26,1
0006f7 1d80      	ADC  R24,R0
0006f8 1d90      	ADC  R25,R0
0006f9 f800      	BLD  R0,0
0006fa 9403      	INC  R0
0006fb fa00      	BST  R0,0
                 __CHKSD2:
0006fc 9508      	RET
                 
                 __GETD1S0:
0006fd 81e8      	LD   R30,Y
0006fe 81f9      	LDD  R31,Y+1
0006ff 816a      	LDD  R22,Y+2
000700 817b      	LDD  R23,Y+3
000701 9508      	RET
                 
                 __GETD2S0:
000702 81a8      	LD   R26,Y
000703 81b9      	LDD  R27,Y+1
000704 818a      	LDD  R24,Y+2
000705 819b      	LDD  R25,Y+3
000706 9508      	RET
                 
                 __PUTD1S0:
000707 83e8      	ST   Y,R30
000708 83f9      	STD  Y+1,R31
000709 836a      	STD  Y+2,R22
00070a 837b      	STD  Y+3,R23
00070b 9508      	RET
                 
                 __PUTPARD1:
00070c 937a      	ST   -Y,R23
00070d 936a      	ST   -Y,R22
00070e 93fa      	ST   -Y,R31
00070f 93ea      	ST   -Y,R30
000710 9508      	RET
                 
                 __PUTPARD2:
000711 939a      	ST   -Y,R25
000712 938a      	ST   -Y,R24
000713 93ba      	ST   -Y,R27
000714 93aa      	ST   -Y,R26
000715 9508      	RET
                 
                 __CDF2U:
000716 9468      	SET
000717 c001      	RJMP __CDF2U0
                 __CDF2:
000718 94e8      	CLT
                 __CDF2U0:
000719 d001      	RCALL __SWAPD12
00071a de4d      	RCALL __CDF1U0
                 
                 __SWAPD12:
00071b 2e18      	MOV  R1,R24
00071c 2f86      	MOV  R24,R22
00071d 2d61      	MOV  R22,R1
00071e 2e19      	MOV  R1,R25
00071f 2f97      	MOV  R25,R23
000720 2d71      	MOV  R23,R1
                 
                 __SWAPW12:
000721 2e1b      	MOV  R1,R27
000722 2fbf      	MOV  R27,R31
000723 2df1      	MOV  R31,R1
                 
                 __SWAPB12:
000724 2e1a      	MOV  R1,R26
000725 2fae      	MOV  R26,R30
000726 2de1      	MOV  R30,R1
000727 9508      	RET
                 
                 __EEPROMRDW:
000728 9611      	ADIW R26,1
000729 d002      	RCALL __EEPROMRDB
00072a 2ffe      	MOV  R31,R30
00072b 9711      	SBIW R26,1
                 
                 __EEPROMRDB:
00072c 99f9      	SBIC EECR,EEWE
00072d cffe      	RJMP __EEPROMRDB
00072e 93ff      	PUSH R31
00072f b7ff      	IN   R31,SREG
000730 94f8      	CLI
000731 bda1      	OUT  EEARL,R26
000732 9af8      	SBI  EECR,EERE
000733 b5e0      	IN   R30,EEDR
000734 bfff      	OUT  SREG,R31
000735 91ff      	POP  R31
000736 9508      	RET
                 
                 __EEPROMWRW:
000737 d007      	RCALL __EEPROMWRB
000738 9611      	ADIW R26,1
000739 93ef      	PUSH R30
00073a 2fef      	MOV  R30,R31
00073b d003      	RCALL __EEPROMWRB
00073c 91ef      	POP  R30
00073d 9711      	SBIW R26,1
00073e 9508      	RET
                 
                 __EEPROMWRB:
00073f 9bf9      	SBIS EECR,EEWE
000740 c002      	RJMP __EEPROMWRB1
000741 95a8      	WDR
000742 cffc      	RJMP __EEPROMWRB
                 __EEPROMWRB1:
000743 b79f      	IN   R25,SREG
000744 94f8      	CLI
000745 bda1      	OUT  EEARL,R26
000746 9af8      	SBI  EECR,EERE
000747 b580      	IN   R24,EEDR
000748 17e8      	CP   R30,R24
000749 f019      	BREQ __EEPROMWRB0
00074a bde0      	OUT  EEDR,R30
00074b 9afa      	SBI  EECR,EEMWE
00074c 9af9      	SBI  EECR,EEWE
                 __EEPROMWRB0:
00074d bf9f      	OUT  SREG,R25
00074e 9508      	RET
                 
                 __CPW02:
00074f 2400      	CLR  R0
000750 160a      	CP   R0,R26
000751 060b      	CPC  R0,R27
000752 9508      	RET
                 
                 __CPD02:
000753 2400      	CLR  R0
000754 160a      	CP   R0,R26
000755 060b      	CPC  R0,R27
000756 0608      	CPC  R0,R24
000757 0609      	CPC  R0,R25
000758 9508      	RET
                 
                 __SAVELOCR6:
000759 935a      	ST   -Y,R21
                 __SAVELOCR5:
00075a 934a      	ST   -Y,R20
                 __SAVELOCR4:
00075b 933a      	ST   -Y,R19
                 __SAVELOCR3:
00075c 932a      	ST   -Y,R18
                 __SAVELOCR2:
00075d 931a      	ST   -Y,R17
00075e 930a      	ST   -Y,R16
00075f 9508      	RET
                 
                 __LOADLOCR6:
000760 815d      	LDD  R21,Y+5
                 __LOADLOCR5:
000761 814c      	LDD  R20,Y+4
                 __LOADLOCR4:
000762 813b      	LDD  R19,Y+3
                 __LOADLOCR3:
000763 812a      	LDD  R18,Y+2
                 __LOADLOCR2:
000764 8119      	LDD  R17,Y+1
000765 8108      	LD   R16,Y
000766 9508      	RET
                 
                 ;END OF CODE MARKER
                 __END_OF_CODE:


RESOURCE USE INFORMATION
------------------------

Notice:
The register and instruction counts are symbol table hit counts,
and hence implicitly used resources are not counted, eg, the
'lpm' instruction without operands implicitly uses r0 and z,
none of which are counted.

x,y,z are separate entities in the symbol table and are
counted separately from r26..r31 here.

.dseg memory usage only counts static data declared with .byte

ATmega48 register use summary:
r0 :  64 r1 :  43 r2 :   0 r3 :   0 r4 :   0 r5 :   0 r6 :   0 r7 :   0 
r8 :   0 r9 :   0 r10:   0 r11:   0 r12:   0 r13:   0 r14:   0 r15:   2 
r16:   5 r17:  14 r18:  23 r19:  21 r20:  23 r21:  66 r22:  74 r23:  75 
r24:  55 r25:  53 r26: 120 r27:  87 r28:   9 r29:   1 r30: 322 r31: 127 
x  :  15 y  : 120 z  :   8 
Registers used: 22 out of 35 (62.9%)

ATmega48 instruction use summary:
.lds  :   0 .lds.l:   0 .sts  :   0 .sts.l:   0 adc   :  31 add   :  21 
adiw  :  13 and   :   2 andi  :   1 asr   :   0 bclr  :   0 bld   :   3 
brbc  :   0 brbs  :   0 brcc  :   4 brcs  :   0 break :   0 breq  :  16 
brge  :   9 brhc  :   0 brhs  :   0 brid  :   0 brie  :   0 brlo  :   9 
brlt  :   8 brmi  :   7 brne  :  28 brpl  :   6 brsh  :   1 brtc  :   5 
brts  :   1 brvc  :   2 brvs  :   3 bset  :   0 bst   :   2 cbi   :   3 
cbr   :   0 clc   :   3 clh   :   0 cli   :   3 cln   :   0 clr   :  30 
cls   :   0 clt   :   5 clv   :   0 clz   :   2 com   :  10 cp    :  13 
cpc   :  26 cpi   :  23 cpse  :   0 dec   :   9 des   :   0 eor   :   5 
fmul  :   0 fmuls :   0 fmulsu:   0 icall :   0 ijmp  :   0 in    :  17 
inc   :   3 ld    :  24 ldd   :  42 ldi   : 167 lds   :  55 lpm   :   9 
lsl   :  12 lsr   :   1 mov   :  46 movw  :  11 mul   :  22 muls  :   0 
mulsu :   0 neg   :   4 nop   :   0 or    :   0 ori   :   3 out   :  28 
pop   :  35 push  :  34 rcall : 164 ret   :  76 reti  :   1 rjmp  :  81 
rol   :  32 ror   :   7 sbc   :  13 sbci  :   9 sbi   :   7 sbic  :   4 
sbis  :   4 sbiw  :  23 sbr   :   2 sbrc  :   0 sbrs  :   5 sec   :   4 
seh   :   0 sei   :   1 sen   :   0 ser   :   8 ses   :   0 set   :   5 
sev   :   0 sez   :   1 sleep :   0 spm   :   0 st    :  54 std   :  15 
sts   :  94 sub   :   5 subi  :   6 swap  :   0 tst   :  15 wdr   :   1 

Instructions used: 75 out of 114 (65.8%)

ATmega48 memory use summary [bytes]:
Segment   Begin    End      Code   Data   Used    Size   Use%
---------------------------------------------------------------
[.cseg] 0x000000 0x000ece   3204    586   3790    4096  92.5%
[.dseg] 0x000100 0x0001a4      0     36     36     512   7.0%
[.eseg] 0x000000 0x000002      0      2      2     256   0.8%

Assembly complete, 0 errors, 1 warnings
